(dp1
S'output'
p2
S'missing "pass" in view'
p3
sS'layer'
p4
S'ParserContainer'
p5
sS'code'
p6
S'response.write(\'<!--\\r\\n#########################################################################\\r\\n## (C) a theory of publishing, Equimind Financial LLC.\\r\\n##  Written by Casey Schroeder, Equimind Financial LLC.\\r\\n##  All rights reserved.\\r\\n##\\r\\n##  Powered by web2py, Thanks Massimo!\\r\\n#########################################################################\\r\\n-->\\r\\n\', escape=False)\nresponse.write(\'<!DOCTYPE html PUBLIC "-//W3C//DTD XHTML 1.0 Strict//EN" "http://www.w3.org/TR/xhtml1/DTD/xhtml1-strict.dtd">\\n<!--\\nDesign by Free CSS Templates\\nhttp://www.freecsstemplates.org\\nReleased for free under a Creative Commons Attribution 2.5 License\\n\\nName       : Pet Charms\\nDescription: A two-column, fixed-width design with dark color scheme.\\nVersion    : 1.0\\nReleased   : 20081109\\n\\n-->\\n<html xmlns="http://www.w3.org/1999/xhtml">\\n <head>\\n  <title>\\n   \', escape=False)\nresponse.write("OpenOpine")\nresponse.write(\'\\n  </title>\\n  \', escape=False)\nresponse.files.append(URL(request.application,\'static\',\'plugin_layouts/layouts/PetCharms/style.css\'))\nresponse.write(\'\\n  \', escape=False)\nresponse.files.append(URL(\'static\',\'plugin_layouts/superfish.js\'))\nresponse.write(\'\\n  \', escape=False)\nresponse.files.insert(0,URL(\'static\',\'js/jquery.js\'))\nresponse.files.insert(1,URL(\'static\',\'css/anytime.css\'))\nresponse.files.insert(2,URL(\'static\',\'js/anytime.js\'))\nresponse.include_meta()\nresponse.include_files()\nresponse.write(\'\\n<script type="text/javascript"><!--\\n    // These variables are used by the web2py_ajax_init function in web2py_ajax.js (which is loaded below).\\n    var w2p_ajax_confirm_message = "\', escape=False)\nresponse.write(T(\'Are you sure you want to delete this object?\'))\nresponse.write(\'";\\n    var w2p_ajax_date_format = "\', escape=False)\nresponse.write(T(\'%Y-%m-%d\'))\nresponse.write(\'";\\n    var w2p_ajax_datetime_format = "\', escape=False)\nresponse.write(T(\'%Y-%m-%d %H:%M:%S\'))\nresponse.write(\'";\\n    //--></script>\\n    <script src="\', escape=False)\nresponse.write(URL(\'static\',\'js/web2py_ajax.js\'))\nresponse.write(\'" type="text/javascript"></script>\\n\', escape=False)\nresponse.write(\'\\n  <style>\\nul.web2py-menu-vertical { width: 150px; position: relative; top:1em; left:1em;  z-index:30; border:0; margin:0; padding: 0; list-style: none; text-decoration: none;}\\nul.web2py-menu-vertical li { margin:0; padding:0; border:0; width: 150px; background: #FFA550; text-align:left;}\\nul.web2py-menu-vertical li a { margin:0; padding: 1px 3px 1px 3px; border:0; width: 144px; color: white; font-size:12px;}\\ndiv.flash { position: fixed; float: right; padding: 10px; top: 10px; right: 30px; opacity: 0.75; margin: 10px 10px 10px 10px; text-align: center; clear: both; color: #fff; font-size: 11pt; text-align: center; vertical-align: middle; cursor: pointer; background: black; border: 2px solid #fff; -moz-border-radius: 5px; -webkit-border-radius: 5px; z-index: 2; }\\ndiv.error { background-color: red; color: white; padding: 3px; }\\n.auth_navbar { text-align:right; z-index:20; position: absolute; top: 2px; right:30px; border:0; padding:0 }\\n  </style>\\n </head>\\n <body>\\n  <!-- start header -->\\n  \', escape=False)\ntry:\n    response.write(auth.navbar(action=URL(\'default\',\'user\')))\nexcept:pass\nresponse.write(\'\\n\\n  <div id="header">\\n   <div id="logo">\\n    <h1>\\n     \', escape=False)\nresponse.write("OpenOpine")\nresponse.write(\'\\n    </h1>\\n    <p>\\n     App By \\n     <a href="http://www.atheoryofpublishing.com/">\\n      A Theory of Publishing\\n     </a>\\n    </p>\\n   </div>\\n  </div>\\n  <!-- end #header -->\\n  <div id="menu">\\n   \', escape=False)\nresponse.write(MENU(response.menu,_class=\'web2py-menu\'))\nresponse.write(\'\\n    <script>\\n      jQuery(document).ready(function(){jQuery(\\\'ul.web2py-menu\\\').superfish({delay:400});});\\n    </script>\\n  </div>\\n  <!-- end #menu -->\\n  <div id="wrapper">\\n   <div id="wrapper-top">\\n    <div id="wrapper-btm">\\n     <div id="page">\\n      <div id="content2">\\n       <div class="flash">\', escape=False)\nresponse.write(response.flash or \'\')\nresponse.write(\'</div>\\n       \', escape=False)\nresponse.write(\'\\r\\n\', escape=False)\nif \'message\' in globals():\n    response.write(\'\\r\\n\\r\\n<h1>\', escape=False)\n    response.write(message)\n    response.write(\'</h1>\\r\\n<hr />\\r\\n\', escape=False)\n    if rec.photo:\n        response.write(\'<a href="\', escape=False)\n        response.write(URL(\'default\', \'profile\', args=[rec.ref_id], vars=dict(tbl=tablename)))\n        response.write(\'"><img width="255" src="\', escape=False)\n        response.write(URL(\'default\', \'download\', args=[rec.photo]))\n        response.write(\'" title="\', escape=False)\n        response.write(name)\n        response.write(\'"/></a>\\r\\n\', escape=False)\n        pass\n    response.write(\'\\r\\n\', escape=False)\n    if rec.photo1:\n        response.write(\'<a href="\', escape=False)\n        response.write(URL(\'default\', \'profile\', args=[rec.ref_id], vars=dict(tbl=tablename)))\n        response.write(\'"><img width="255" src="\', escape=False)\n        response.write(URL(\'default\', \'download\', args=[rec.photo1]))\n        response.write(\'" title="\', escape=False)\n        response.write(name)\n        response.write(\'"/></a>\\r\\n\', escape=False)\n        pass\n    response.write(\'\\r\\n\', escape=False)\n    if rec.photo2:\n        response.write(\'<a href="\', escape=False)\n        response.write(URL(\'default\', \'profile\', args=[rec.ref_id], vars=dict(tbl=tablename)))\n        response.write(\'"><img width="255" src="\', escape=False)\n        response.write(URL(\'default\', \'download\', args=[rec.photo2]))\n        response.write(\'" title="\', escape=False)\n        response.write(name)\n        response.write(\'"/></a><br/><br/>\\r\\n\', escape=False)\n        pass\n    response.write(\'\\r\\n<h2>\\r\\n<a href="\', escape=False)\n    response.write(URL(\'default\', \'reviewer_profile\', args=[rec.author]))\n    response.write(\'"><img width=50 src="\', escape=False)\n    response.write(URL(\'default\', \'download\', args=[db.reviewer[rec.author].photo]))\n    response.write(\'"/></a>\\r\\n\', escape=False)\n    response.write(db.reviewer[rec.author].screenname)\n    response.write(\'</h2>\\r\\n<br/>\\r\\n<div>\\r\\n\', escape=False)\n    response.write(MARKMIN(rec.text))\n    response.write(\'\\r\\n    <br/>\\r\\nRating: \\r\\n\', escape=False)\n    for i in range(1,rec.rating):\n        response.write(\'\\r\\n<img align=\\\'left\\\' src="\', escape=False)\n        response.write(URL(request.application,\'static/orange_star.jpg\'))\n        response.write(\'"/>\\r\\n<pass>\\r\\n    <br/>\\r\\n  \', escape=False)\n        for comment in comments:\n            response.write(\'\\r\\n  <tr>\\r\\n    <td class="comment" >\\r\\n    <br/>\\r\\n      <i>\', escape=False)\n            response.write(comment.body)\n            response.write(\'</i>\\r\\n      <div class="right">\', escape=False)\n            response.write(T(\'by\'))\n            response.write(\' \', escape=False)\n            response.write(db.auth_user[comment.created_by].first_name)\n            response.write(\' \', escape=False)\n            response.write(prettydate(comment.created_on))\n            response.write(\'</div>\\r\\n    </td>\\r\\n  </tr>\\r\\n  </br>\\r\\n  \', escape=False)\n            pass\n        response.write(\'\\r\\n  <tr>\\r\\n  \', escape=False)\n        if form:\n            response.write(\'\\r\\n    <td>\\r\\n      <h2>Comments Welcome</h2>\\r\\n      \', escape=False)\n            response.write(form.custom.begin)\n            response.write(form.custom.widget.body)\n            response.write(form.custom.submit)\n            response.write(form.custom.end)\n            response.write(\'\\r\\n    </td>    \\r\\n  \', escape=False)\n        else:\n            response.write(\'\\r\\n      <h2> \', escape=False)\n            response.write(T(\'Please Log On To Comment\'))\n            response.write(\' </h2>\\r\\n  \', escape=False)\n            pass\n        response.write(\'\\r\\n  </tr>\\r\\n</div>\\r\\n\', escape=False)\n    else:\n        response.write(\'\\r\\n\', escape=False)\n        response.write(BEAUTIFY(response._vars))\n        response.write(\'\\r\\n\', escape=False)\n        pass\n    response.write(\'\\r\\n\', escape=False)\n    response.write(\'\\n      </div>\\n      <!-- end #content -->\\n      <div style="clear: both;">\\n       &nbsp;\\n      </div>\\n     </div>\\n     <!-- end #page -->\\n    </div>\\n   </div>\\n  </div>\\n  <div id="footer">\\n   <p>\\n    App by \\n    <a href="http://www.atheoryofpublishing.com/">\\n    A Theory of Publishing\\n    </a>    \\n   . Powered by\\n    <a href="http://www.web2py.com">\\n    web2py\\n    </a>\\n   . Design by\\n    <a href="http://www.freecsstemplates.org/">\\n     Free CSS Templates\\n    </a>\\n    .\\n   </p>\\n  </div>\\n  <!-- end #footer -->\\n </body>\\n</html>\\n\', escape=False)'
p7
sS'snapshot'
p8
(dp9
S'exception'
p10
(dp11
S'__hash__'
p12
S"<method-wrapper '__hash__' of SocketTimeout object at 0x06D1C828>"
p13
sS'__module__'
p14
S"'gluon.rocket'"
p15
sS'__reduce_ex__'
p16
S'<built-in method __reduce_ex__ of SocketTimeout object at 0x06D1C828>'
p17
sS'__getslice__'
p18
S"<method-wrapper '__getslice__' of SocketTimeout object at 0x06D1C828>"
p19
sS'__getitem__'
p20
S"<method-wrapper '__getitem__' of SocketTimeout object at 0x06D1C828>"
p21
sS'__setstate__'
p22
S'<built-in method __setstate__ of SocketTimeout object at 0x06D1C828>'
p23
sS'__reduce__'
p24
S'<built-in method __reduce__ of SocketTimeout object at 0x06D1C828>'
p25
sS'__str__'
p26
S"<method-wrapper '__str__' of SocketTimeout object at 0x06D1C828>"
p27
sS'args'
p28
S"('Socket timed out before request.',)"
p29
sS'__getattribute__'
p30
S"<method-wrapper '__getattribute__' of SocketTimeout object at 0x06D1C828>"
p31
sS'__class__'
p32
S"<class 'gluon.rocket.SocketTimeout'>"
p33
sS'__delattr__'
p34
S"<method-wrapper '__delattr__' of SocketTimeout object at 0x06D1C828>"
p35
sS'__repr__'
p36
S"<method-wrapper '__repr__' of SocketTimeout object at 0x06D1C828>"
p37
sS'__setattr__'
p38
S"<method-wrapper '__setattr__' of SocketTimeout object at 0x06D1C828>"
p39
sS'__dict__'
p40
S'{}'
p41
sS'__weakref__'
p42
S'None'
p43
sS'__doc__'
p44
S"'Exception for when a socket times out between requests.'"
p45
sS'__init__'
p46
S"<method-wrapper '__init__' of SocketTimeout object at 0x06D1C828>"
p47
sS'__new__'
p48
S'<built-in method __new__ of type object at 0x1E1CCBE8>'
p49
ssS'evalue'
p50
S'Socket timed out before request.'
p51
sS'frames'
p52
(lp53
(dp54
S'file'
p55
S'C:\\Users\\Do It\\Desktop\\web2py_opine\\web2py\\gluon\\rocket.py'
p56
sS'dump'
p57
(dp58
S'self'
p59
S'<WSGIWorker(Thread-13, started daemon)>'
p60
sS'conn'
p61
S'<gluon.rocket.Connection object at 0x06A7F088>'
p62
sS'self.run_app'
p63
S'<bound method WSGIWorker.run_app of <WSGIWorker(Thread-13, started daemon)>>'
p64
ssS'lnum'
p65
I1302
sS'lines'
p66
(dp67
I1297
S'            # Enter connection serve loop'
p68
sI1298
S'            while True:'
p69
sI1299
S'                if __debug__:'
p70
sI1300
S"                    self.err_log.debug('Serving a request')"
p71
sI1301
S'                try:'
p72
sI1302
S'                    self.run_app(conn)'
p73
sI1303
S'                    log_info = dict(client_ip = conn.client_addr,'
p74
sI1304
S"                                    time = datetime.now().strftime('%c'),"
p75
sI1305
S"                                    status = self.status.split(' ')[0],"
p76
sI1306
S'                                    size = self.size,'
p77
ssS'call'
p78
S'(self=<WSGIWorker(Thread-13, started daemon)>)'
p79
sS'func'
p80
S'run'
p81
sa(dp82
g55
S'C:\\Users\\Do It\\Desktop\\web2py_opine\\web2py\\gluon\\rocket.py'
p83
sg57
(dp84
S'self'
p85
S'<WSGIWorker(Thread-13, started daemon)>'
p86
sS'self.environ'
p87
S"{'HTTP_ACCEPT': 'text/html,application/xhtml+xml,application/xml;q=0.9,*/*;q=0.8', 'HTTP_ACCEPT_CHARSET': 'ISO-8859-1,utf-8;q=0.7,*;q=0.7', 'HTTP_ACCEPT_ENCODING': 'gzip, deflate', 'HTTP_ACCEPT_LANGUAGE': 'en-us,en;q=0.5', 'HTTP_CONNECTION': 'keep-alive', 'HTTP_COOKIE': 'session_id_init=127.0.0.1-2d10a858-8feb-475a-940...ne=127.0.0.1-c23be48a-ee51-4c8b-a5be-0c35c319ee44', 'HTTP_HOST': '127.0.0.1:8000', 'HTTP_USER_AGENT': 'Mozilla/5.0 (Windows NT 6.1; WOW64; rv:8.0) Gecko/20100101 Firefox/8.0', 'PATH_INFO': '/openopine/default/review/1', 'QUERY_STRING': 'tbl=place', ...}"
p88
sS'sock_file'
p89
S'<socket._fileobject object at 0x035D2A70>'
p90
sS'environ'
p91
S'undefined'
p92
sS'self.build_environ'
p93
S'<bound method WSGIWorker.build_environ of <WSGIWorker(Thread-13, started daemon)>>'
p94
sS'conn'
p95
S'<gluon.rocket.Connection object at 0x0328BBE0>'
p96
ssg65
I1986
sg66
(dp97
I1984
S'        try:'
p98
sI1985
S'            # Read the headers and build our WSGI environment'
p99
sI1986
S'            self.environ = environ = self.build_environ(sock_file, conn)'
p100
sI1987
S''
sI1988
S'            # Handle 100 Continue'
p101
sI1989
S"            if environ.get('HTTP_EXPECT', '') == '100-continue':"
p102
sI1990
S"                res = environ['SERVER_PROTOCOL'] + ' 100 Continue\\r\\n\\r\\n'"
p103
sI1981
S'        else:'
p104
sI1982
S'            sock_file = conn.makefile(BUF_SIZE)'
p105
sI1983
S''
ssg78
S'(self=<WSGIWorker(Thread-13, started daemon)>, conn=<gluon.rocket.Connection object at 0x0328BBE0>)'
p106
sg80
S'run_app'
p107
sa(dp108
g55
S'C:\\Users\\Do It\\Desktop\\web2py_opine\\web2py\\gluon\\rocket.py'
p109
sg57
(dp110
S'sock_file'
p111
S'<socket._fileobject object at 0x035D2A70>'
p112
sS'self.read_request_line'
p113
S'<bound method WSGIWorker.read_request_line of <WSGIWorker(Thread-13, started daemon)>>'
p114
sS'self'
p115
S'<WSGIWorker(Thread-13, started daemon)>'
p116
sS'request'
p117
g92
ssg65
I1807
sg66
(dp118
I1802
S'                                      "wsgiorg.futures": executor.futures})'
p119
sI1803
S''
sI1804
S'    def build_environ(self, sock_file, conn):'
p120
sI1805
S'        """ Build the execution environment. """'
p121
sI1806
S'        # Grab the request line'
p122
sI1807
S'        request = self.read_request_line(sock_file)'
p123
sI1808
S''
sI1809
S'        # Copy the Base Environment'
p124
sI1810
S'        environ = self.base_environ.copy()'
p125
sI1811
S''
ssg78
S'(self=<WSGIWorker(Thread-13, started daemon)>, sock_file=<socket._fileobject object at 0x035D2A70>, conn=<gluon.rocket.Connection object at 0x0328BBE0>)'
p126
sg80
S'build_environ'
p127
sa(dp128
g55
S'C:\\Users\\Do It\\Desktop\\web2py_opine\\web2py\\gluon\\rocket.py'
p129
sg57
(dp130
S'global SocketTimeout'
p131
S"<class 'gluon.rocket.SocketTimeout'>"
p132
ssg65
I1376
sg66
(dp133
I1376
S'            raise SocketTimeout("Socket timed out before request.")'
p134
sI1377
S''
sI1378
S'        d = d.strip()'
p135
sI1379
S''
sI1380
S'        if not d:'
p136
sI1371
S''
sI1372
S'                d = sock_file.readline()'
p137
sI1373
S'                if PY3K:'
p138
sI1374
S"                    d = d.decode('ISO-8859-1')"
p139
sI1375
S'        except socket.timeout:'
p140
ssg78
S'(self=<WSGIWorker(Thread-13, started daemon)>, sock_file=<socket._fileobject object at 0x035D2A70>)'
p141
sg80
S'read_request_line'
p142
sasS'pyver'
p143
S'Python 2.5.4: C:\\Python25\\python.exe'
p144
sS'etype'
p145
S"<class 'gluon.rocket.SocketTimeout'>"
p146
sS'date'
p147
S'Mon Nov 21 10:13:04 2011'
p148
sS'locals'
p149
(dp150
S'sock_file'
p151
S'<socket._fileobject object at 0x035D2A70>'
p152
sS'self'
p153
S'<WSGIWorker(Thread-13, started daemon)>'
p154
sssS'traceback'
p155
S'Traceback (most recent call last):\n  File "C:\\Users\\Do It\\Desktop\\web2py_opine\\web2py\\gluon\\rocket.py", line 1302, in run\n    self.run_app(conn)\n  File "C:\\Users\\Do It\\Desktop\\web2py_opine\\web2py\\gluon\\rocket.py", line 1986, in run_app\n    self.environ = environ = self.build_environ(sock_file, conn)\n  File "C:\\Users\\Do It\\Desktop\\web2py_opine\\web2py\\gluon\\rocket.py", line 1807, in build_environ\n    request = self.read_request_line(sock_file)\n  File "C:\\Users\\Do It\\Desktop\\web2py_opine\\web2py\\gluon\\rocket.py", line 1376, in read_request_line\n    raise SocketTimeout("Socket timed out before request.")\nSocketTimeout: Socket timed out before request.\n'
p156
s.