(dp1
S'output'
p2
S''
sS'layer'
p3
S'C:\\Users\\Do It\\Desktop\\web2py_opine\\web2py\\applications\\openopine\\models\\db.py'
p4
sS'code'
p5
S'# -*- coding: utf-8 -*-\n\n#########################################################################\n## This scaffolding model makes your app work on Google App Engine too\n## File is released under public domain and you can use without limitations\n#########################################################################\n\nif not request.env.web2py_runtime_gae:     \n    ## if NOT running on Google App Engine use SQLite or other DB\n    db = DAL(\'sqlite://storage.sqlite\') \nelse:\n    ## connect to Google BigTable (optional \'google:datastore://namespace\')\n    db = DAL(\'google:datastore\') \n    ## store sessions and tickets there\n    session.connect(request, response, db = db) \n    ## or store session in Memcache, Redis, etc.\n    ## from gluon.contrib.memdb import MEMDB\n    ## from google.appengine.api.memcache import Client\n    ## session.connect(request, response, db = MEMDB(Client()))\n\n## by default give a view/generic.extension to all actions from localhost\n## none otherwise. a pattern can be \'controller/function.extension\'\nresponse.generic_patterns = [\'*\'] if request.is_local else []\nT.current_languages = [\'en\', \'en-en\']\n#T.force(\'es-es\')\n#########################################################################\n## Here is sample code if you need for\n## - email capabilities\n## - authentication (registration, login, logout, ... )\n## - authorization (role based authorization)\n## - services (xml, csv, json, xmlrpc, jsonrpc, amf, rss)\n## - old style crud actions\n## (more options discussed in gluon/tools.py)\n#########################################################################\n\nfrom gluon.tools import Auth, Crud, Service, PluginManager, prettydate\nauth = Auth(db, hmac_key=Auth.get_or_create_key()) \ncrud, service, plugins = Crud(db), Service(), PluginManager()\n\n## create all tables needed by auth if not custom tables\nauth.define_tables() \n\nif len(db(db.auth_group.role == \'admin\').select())<1:\n    db.auth_group.insert(role= \'admin\', description="For administration of memebers")\nif len(db(db.auth_group.role == \'reviewer\').select())<1:\n    db.auth_group.insert(role= \'reviewer\', description="For submitting reviews")\n\n## user must be admin of application\n## configure email\nmail=auth.settings.mailer\n## configure auth policy\nauth.settings.registration_requires_verification = False\nauth.settings.registration_requires_approval = False\nauth.settings.reset_password_requires_verification = True\n\n## if you need to use OpenID, Facebook, MySpace, Twitter, Linkedin, etc.\n## register with janrain.com, write your domain:api_key in private/janrain.key\n##from gluon.contrib.login_methods.rpx_account import use_janrain\n##use_janrain(auth,filename=\'private/janrain.key\')\n\n#########################################################################\n## Define your tables below (or better in another model file) for example\n##\n## >>> db.define_table(\'mytable\',Field(\'myfield\',\'string\'))\n##\n## Fields can be \'string\',\'text\',\'password\',\'integer\',\'double\',\'boolean\'\n##       \'date\',\'time\',\'datetime\',\'blob\',\'upload\', \'reference TABLENAME\'\n## There is an implicit \'id integer autoincrement\' field\n## Consult manual for more options, validators, etc.\n##\n## More API examples for controllers:\n##\n## >>> db.mytable.insert(myfield=\'value\')\n## >>> rows=db(db.mytable.myfield==\'value\').select(db.mytable.ALL)\n## >>> for row in rows: print row.id, row.myfield\n#########################################################################\n\n\ndb.define_table(\'reviewer\', \n                Field(\'screenname\', \'string\', length=(30,2)),\n                Field(\'userid\', db.auth_user),\n                Field(\'photo\', \'upload\', length=(130000, 1024), requires=[IS_IMAGE(), IS_LENGTH(130000, 1024)]), \n                Field(\'city\', \'string\', length=25, requires=IS_LENGTH(25,2)), \n                Field(\'state\', \'string\', length=25,requires=IS_LENGTH(25,2)), \n                Field(\'country\', \'string\', length=25,requires=IS_LENGTH(25,2)), \n                Field(\'loves\', \'string\', length=200,requires=IS_LENGTH(200,2)), \n                Field(\'likes\', \'string\', length=200,requires=IS_LENGTH(200,2)), \n                Field(\'dislikes\', \'string\', length=200,requires=IS_LENGTH(200,2)), \n                Field(\'about_me\', \'text\'))\n\ndb.define_table(\'region\', \n                Field(\'name\', \'string\', length=25,requires=IS_LENGTH(25,2)),\n                Field(\'blurb\', \'string\', length=500,requires=IS_LENGTH(500,2)),\n                Field(\'photo\', \'upload\', length=(130000, 1024), requires=[IS_IMAGE(), IS_LENGTH(130000, 1024)]), \n                Field(\'city\', \'string\', length=25, requires=IS_LENGTH(25,2)), \n                Field(\'state\', \'string\', length=25,requires=IS_LENGTH(25,2)), \n                Field(\'country\', \'string\', length=25,requires=IS_LENGTH(25,2)), \n                Field(\'product_categories\', \'string\', length=400,requires=IS_LENGTH(400,2)), \n                Field(\'product_lines\', \'string\', length=400,requires=IS_LENGTH(400,2)), \n                Field(\'famous_for\', \'string\', length=200,requires=IS_LENGTH(200,2)), \n                Field(\'about\', \'text\'))\n\ndb.define_table(\'place\', \n                Field(\'name\', \'string\', length=25,requires=IS_LENGTH(25,2)), \n                Field(\'blurb\', \'string\', length=500, requires=IS_LENGTH(500,2)),\n                Field(\'photo\', \'upload\', length=(130000, 1024), requires=[IS_IMAGE(), IS_LENGTH(130000, 1024)]), \n                Field(\'region\', db.region, required=True, requires=IS_IN_DB(db, \'region.id\', \'%(name)s\')),\n                Field(\'type\', \'string\', length=25, requires=IS_IN_SET([T(\'computing\'), T(\'audio-visual\'), T(\'mobile\')])),\n                Field(\'description\', \'string\', length=400,requires=IS_LENGTH(400,2)),\n                Field(\'cost\', \'string\', length=200,requires=IS_LENGTH(200,2)), \n                Field(\'about\', \'text\'))\n\ndb.define_table(\'event\', \n                Field(\'name\', \'string\', length=25,requires=IS_LENGTH(25,2)), \n                Field(\'blurb\', \'string\', length=500,requires=IS_LENGTH(500,2)),\n                Field(\'photo\', \'upload\', length=(130000, 1024), requires=[IS_IMAGE(), IS_LENGTH(130000, 1024)]), \n                Field(\'region\', db.region, required=True, requires=IS_IN_DB(db, \'region.id\', \'%(name)s\')),\n                Field(\'place\', db.place, requires=IS_NULL_OR(IS_IN_DB(db, \'place.id\', \'%(name)s\'))),\n                Field(\'description\', \'string\', length=200,requires=IS_LENGTH(200,2)),\n                Field(\'cost\', \'string\', length=200,requires=IS_LENGTH(200,2)), \n                Field(\'about\', \'text\'))\n\nOptionsWidget = SQLFORM.widgets.options.widget\n\nclass RatingWidget(OptionsWidget):\n    @staticmethod\n    def widget(field, value, **attributes):\n        attr = OptionsWidget._attributes(field, {}, **attributes)\n\n        if isinstance(field.requires, IS_NULL_OR)\\\n             and hasattr(field.requires.other, \'options\'):\n            opts = [TD(INPUT(_type=\'radio\', _name=field.name,\n                             _value=\'\', value=value), \'\')]\n            options = field.requires.other.options()\n        elif hasattr(field.requires, \'options\'):\n            opts = []\n            options = field.requires.options()\n        else:\n            raise SyntaxError, \'widget cannot determine options of %s\' % field\n        opts += [TD(INPUT(_type=\'radio\', _name=field.name,\n                          _value=k, value=value), \'\') for (k, v) in options]\n        return TABLE(TR(*([\'low\']+opts+[\'high\'])), **attr) \n\n\nimport datetime\n\ndb.define_table(\'region_review\', \n                Field(\'ref_id\', db.region, required=True, requires=IS_IN_DB(db, \'region.id\', \'%(name)s\')),\n                Field(\'blurb\', \'string\', length=500,requires=IS_LENGTH(500,2)),\n                Field(\'author\', db.reviewer, requires=IS_IN_DB(db, \'reviewer.id\', "%(screenname)s")),\n                Field(\'photo\', \'upload\', length=(130000, 1024), requires=[IS_IMAGE(), IS_LENGTH(130000, 1024)]), \n                Field(\'photo1\', \'upload\', length=(130000, 1024), requires=[IS_IMAGE(), IS_LENGTH(130000, 1024)]), \n                Field(\'photo2\', \'upload\', length=(130000, 1024), requires=[IS_IMAGE(), IS_LENGTH(130000, 1024)]), \n                Field(\'title\', \'string\', length=100,requires=IS_LENGTH(100,2)), \n                Field(\'subject\', \'string\', length=25,requires=IS_LENGTH(25,2)), \n                Field(\'the_good\', \'string\', length=250,requires=IS_LENGTH(250,2)), \n                Field(\'the_bad\', \'string\', length=250,requires=IS_LENGTH(250,2)), \n                Field(\'date\', \'datetime\', default=datetime.datetime.now()), \n                Field(\'text\', \'text\'), \n                Field(\'stars\', \'integer\', requires=IS_LENGTH(5,0), widget=RatingWidget.widget)\n                )\n\ndb.define_table(\'place_review\', \n                Field(\'ref_id\', db.place, required=True, requires=IS_IN_DB(db, \'place.id\', \'%(name)s\')),\n                Field(\'blurb\', \'string\', length=500,requires=IS_LENGTH(500,2)),\n                Field(\'author\', db.reviewer, requires=IS_IN_DB(db, \'reviewer.id\', "%(screenname)s")),\n                Field(\'photo\', \'upload\', length=(130000, 1024), requires=[IS_IMAGE(), IS_LENGTH(130000, 1024)]), \n                Field(\'photo1\', \'upload\', length=(130000, 1024), requires=[IS_IMAGE(), IS_LENGTH(130000, 1024)]), \n                Field(\'photo2\', \'upload\', length=(130000, 1024), requires=[IS_IMAGE(), IS_LENGTH(130000, 1024)]), \n                Field(\'title\', \'string\', length=100,requires=IS_LENGTH(100,2)), \n                Field(\'subject\', \'string\', length=25,requires=IS_LENGTH(25,2)), \n                Field(\'the_good\', \'string\', length=250,requires=IS_LENGTH(250,2)), \n                Field(\'the_bad\', \'string\', length=250,requires=IS_LENGTH(250,2)), \n                Field(\'date\', \'datetime\', default=datetime.datetime.now()), \n                Field(\'text\', \'text\'),\n                Field(\'stars\', \'integer\', requires=IS_LENGTH(5,0), widget=RatingWidget.widget)\n                )\n\ndb.define_table(\'event_review\', \n                Field(\'ref_id\', db.event, required=True, requires=IS_IN_DB(db, \'event.id\', \'%(name)s\')),\n                Field(\'blurb\', \'string\', length=500,requires=IS_LENGTH(500,2)),\n                Field(\'author\', db.reviewer, requires=IS_IN_DB(db, \'reviewer.id\', "%(screenname)s")),\n                Field(\'photo\', \'upload\', length=(130000, 1024), requires=[IS_IMAGE(), IS_LENGTH(130000, 1024)]), \n                Field(\'photo1\', \'upload\', length=(130000, 1024), requires=[IS_IMAGE(), IS_LENGTH(130000, 1024)]), \n                Field(\'photo2\', \'upload\', length=(130000, 1024), requires=[IS_IMAGE(), IS_LENGTH(130000, 1024)]), \n                Field(\'title\', \'string\', length=100,requires=IS_LENGTH(100,2)), \n                Field(\'subject\', \'string\', length=25,requires=IS_LENGTH(25,2)), \n                Field(\'the_good\', \'string\', length=250,requires=IS_LENGTH(250,2)), \n                Field(\'the_bad\', \'string\', length=250,requires=IS_LENGTH(250,2)), \n                Field(\'type\', \'string\', length=25,requires=IS_LENGTH(25,2)), \n                Field(\'date\', \'datetime\', default=datetime.datetime.now()), \n                Field(\'text\', \'text\'),\n                Field(\'stars\', \'integer\', requires=IS_LENGTH(5,0), widget=RatingWidget.widget)\n                )\n\n\n#############\n##The following is Open source code modified for this application\n##Taken from the "simple comments" web2py plugin.\n##No licensing applicable\n#############\nimport datetime\n\ndb.define_table(\'plugin_simple_comments_comment\',\n                Field(\'tablename\',\n                      writable=False,readable=False),\n                Field(\'record_id\',\'integer\',\n                      writable=False,readable=False),\n                Field(\'body\',\'text\', requires=[IS_NOT_EMPTY(), IS_LENGTH(1000, 1)],label=T(\'Your comment\'), widget=SQLFORM.widgets.text.widget),\n                Field(\'created_by\',db.auth_user,default=auth.user_id,\n                      readable=False,writable=False),\n                Field(\'created_on\',\'datetime\',default=datetime.datetime.now(),\n                      readable=False,writable=False))\n'
p6
sS'snapshot'
p7
(dp8
S'exception'
p9
(dp10
S'__hash__'
p11
S"<method-wrapper '__hash__' of exceptions.TypeError object at 0x033E3620>"
p12
sS'__setattr__'
p13
S"<method-wrapper '__setattr__' of exceptions.TypeError object at 0x033E3620>"
p14
sS'__reduce_ex__'
p15
S'<built-in method __reduce_ex__ of exceptions.TypeError object at 0x033E3620>'
p16
sS'__getslice__'
p17
S"<method-wrapper '__getslice__' of exceptions.TypeError object at 0x033E3620>"
p18
sS'__getitem__'
p19
S"<method-wrapper '__getitem__' of exceptions.TypeError object at 0x033E3620>"
p20
sS'__setstate__'
p21
S'<built-in method __setstate__ of exceptions.TypeError object at 0x033E3620>'
p22
sS'__reduce__'
p23
S'<built-in method __reduce__ of exceptions.TypeError object at 0x033E3620>'
p24
sS'__str__'
p25
S"<method-wrapper '__str__' of exceptions.TypeError object at 0x033E3620>"
p26
sS'args'
p27
S"('Error when calling the metaclass bases\\n    function() argument 1 must be code, not str',)"
p28
sS'__getattribute__'
p29
S"<method-wrapper '__getattribute__' of exceptions.TypeError object at 0x033E3620>"
p30
sS'__class__'
p31
S"<type 'exceptions.TypeError'>"
p32
sS'__delattr__'
p33
S"<method-wrapper '__delattr__' of exceptions.TypeError object at 0x033E3620>"
p34
sS'__repr__'
p35
S"<method-wrapper '__repr__' of exceptions.TypeError object at 0x033E3620>"
p36
sS'__dict__'
p37
S'{}'
p38
sS'__doc__'
p39
S"'Inappropriate argument type.'"
p40
sS'__init__'
p41
S"<method-wrapper '__init__' of exceptions.TypeError object at 0x033E3620>"
p42
sS'__new__'
p43
S'<built-in method __new__ of type object at 0x1E1CCD78>'
p44
ssS'evalue'
p45
S'Error when calling the metaclass bases\n    function() argument 1 must be code, not str'
p46
sS'request'
p47
ccopy_reg
_reconstructor
p48
(cgluon.html
BEAUTIFY
p49
c__builtin__
object
p50
NtRp51
(dp52
S'attributes'
p53
(dp54
sS'components'
p55
(lp56
g48
(cgluon.html
TABLE
p57
g50
NtRp58
(dp59
g53
(dp60
S'level'
p61
I5
ssS'parent'
p62
Nsg55
(lp63
g48
(cgluon.html
TR
p64
g50
NtRp65
(dp66
g53
(dp67
sg62
g58
sg55
(lp68
g48
(cgluon.html
TD
p69
g50
NtRp70
(dp71
g53
(dp72
S'_style'
p73
S'font-weight:bold;'
p74
ssg62
g65
sg55
(lp75
S'ajax'
p76
asbag48
(g69
g50
NtRp77
(dp78
g53
(dp79
S'_valign'
p80
S'top'
p81
ssg62
g65
sg55
(lp82
S':'
asbag48
(g69
g50
NtRp83
(dp84
g53
(dp85
sg62
g65
sg55
(lp86
g48
(g49
g50
NtRp87
(dp88
g53
(dp89
g61
I5
ssg62
g83
sg55
(lp90
S'False'
p91
asbasbasbag48
(g64
g50
NtRp92
(dp93
g53
(dp94
sg62
g58
sg55
(lp95
g48
(g69
g50
NtRp96
(dp97
g53
(dp98
g73
g74
ssg62
g92
sg55
(lp99
S'application'
p100
asbag48
(g69
g50
NtRp101
(dp102
g53
(dp103
g80
g81
ssg62
g92
sg55
(lp104
S':'
asbag48
(g69
g50
NtRp105
(dp106
g53
(dp107
sg62
g92
sg55
(lp108
g48
(g49
g50
NtRp109
(dp110
g53
(dp111
g61
I5
ssg62
g105
sg55
(lp112
S'openopine'
p113
asbasbasbag48
(g64
g50
NtRp114
(dp115
g53
(dp116
sg62
g58
sg55
(lp117
g48
(g69
g50
NtRp118
(dp119
g53
(dp120
g73
g74
ssg62
g114
sg55
(lp121
g27
asbag48
(g69
g50
NtRp122
(dp123
g53
(dp124
g80
g81
ssg62
g114
sg55
(lp125
S':'
asbag48
(g69
g50
NtRp126
(dp127
g53
(dp128
sg62
g114
sg55
(lp129
g48
(g49
g50
NtRp130
(dp131
g53
(dp132
g61
I5
ssg62
g126
sg55
(lp133
g48
(g57
g50
NtRp134
(dp135
g53
(dp136
g61
I4
ssg62
Nsg55
(lp137
sbasbasbasbag48
(g64
g50
NtRp138
(dp139
g53
(dp140
sg62
g58
sg55
(lp141
g48
(g69
g50
NtRp142
(dp143
g53
(dp144
g73
g74
ssg62
g138
sg55
(lp145
S'body'
p146
asbag48
(g69
g50
NtRp147
(dp148
g53
(dp149
g80
g81
ssg62
g138
sg55
(lp150
S':'
asbag48
(g69
g50
NtRp151
(dp152
g53
(dp153
sg62
g138
sg55
(lp154
g48
(g49
g50
NtRp155
(dp156
g53
(dp157
g61
I5
ssg62
g151
sg55
(lp158
S'<cStringIO.StringO object at 0x032544E0>'
p159
asbasbasbag48
(g64
g50
NtRp160
(dp161
g53
(dp162
sg62
g58
sg55
(lp163
g48
(g69
g50
NtRp164
(dp165
g53
(dp166
g73
g74
ssg62
g160
sg55
(lp167
S'client'
p168
asbag48
(g69
g50
NtRp169
(dp170
g53
(dp171
g80
g81
ssg62
g160
sg55
(lp172
S':'
asbag48
(g69
g50
NtRp173
(dp174
g53
(dp175
sg62
g160
sg55
(lp176
g48
(g49
g50
NtRp177
(dp178
g53
(dp179
g61
I5
ssg62
g173
sg55
(lp180
S'127.0.0.1'
p181
asbasbasbag48
(g64
g50
NtRp182
(dp183
g53
(dp184
sg62
g58
sg55
(lp185
g48
(g69
g50
NtRp186
(dp187
g53
(dp188
g73
g74
ssg62
g182
sg55
(lp189
S'controller'
p190
asbag48
(g69
g50
NtRp191
(dp192
g53
(dp193
g80
g81
ssg62
g182
sg55
(lp194
S':'
asbag48
(g69
g50
NtRp195
(dp196
g53
(dp197
sg62
g182
sg55
(lp198
g48
(g49
g50
NtRp199
(dp200
g53
(dp201
g61
I5
ssg62
g195
sg55
(lp202
S'default'
p203
asbasbasbag48
(g64
g50
NtRp204
(dp205
g53
(dp206
sg62
g58
sg55
(lp207
g48
(g69
g50
NtRp208
(dp209
g53
(dp210
g73
g74
ssg62
g204
sg55
(lp211
S'cookies'
p212
asbag48
(g69
g50
NtRp213
(dp214
g53
(dp215
g80
g81
ssg62
g204
sg55
(lp216
S':'
asbag48
(g69
g50
NtRp217
(dp218
g53
(dp219
sg62
g204
sg55
(lp220
g48
(g49
g50
NtRp221
(dp222
g53
(dp223
g61
I5
ssg62
g217
sg55
(lp224
g48
(g57
g50
NtRp225
(dp226
g53
(dp227
g61
I4
ssg62
Nsg55
(lp228
g48
(g64
g50
NtRp229
(dp230
g53
(dp231
sg62
g225
sg55
(lp232
g48
(g69
g50
NtRp233
(dp234
g53
(dp235
g73
g74
ssg62
g229
sg55
(lp236
S'session_id_admin'
p237
asbag48
(g69
g50
NtRp238
(dp239
g53
(dp240
g80
g81
ssg62
g229
sg55
(lp241
S':'
asbag48
(g69
g50
NtRp242
(dp243
g53
(dp244
sg62
g229
sg55
(lp245
g48
(g49
g50
NtRp246
(dp247
g53
(dp248
g61
I4
ssg62
g242
sg55
(lp249
g48
(g57
g50
NtRp250
(dp251
g53
(dp252
g61
I3
ssg62
Nsg55
(lp253
g48
(g64
g50
NtRp254
(dp255
g53
(dp256
sg62
g250
sg55
(lp257
g48
(g69
g50
NtRp258
(dp259
g53
(dp260
g73
g74
ssg62
g254
sg55
(lp261
S'comment'
p262
asbag48
(g69
g50
NtRp263
(dp264
g53
(dp265
g80
g81
ssg62
g254
sg55
(lp266
S':'
asbag48
(g69
g50
NtRp267
(dp268
g53
(dp269
sg62
g254
sg55
(lp270
g48
(g49
g50
NtRp271
(dp272
g53
(dp273
g61
I3
ssg62
g267
sg55
(lp274
S''
asbasbasbag48
(g64
g50
NtRp275
(dp276
g53
(dp277
sg62
g250
sg55
(lp278
g48
(g69
g50
NtRp279
(dp280
g53
(dp281
g73
g74
ssg62
g275
sg55
(lp282
S'domain'
p283
asbag48
(g69
g50
NtRp284
(dp285
g53
(dp286
g80
g81
ssg62
g275
sg55
(lp287
S':'
asbag48
(g69
g50
NtRp288
(dp289
g53
(dp290
sg62
g275
sg55
(lp291
g48
(g49
g50
NtRp292
(dp293
g53
(dp294
g61
I3
ssg62
g288
sg55
(lp295
S''
asbasbasbag48
(g64
g50
NtRp296
(dp297
g53
(dp298
sg62
g250
sg55
(lp299
g48
(g69
g50
NtRp300
(dp301
g53
(dp302
g73
g74
ssg62
g296
sg55
(lp303
S'expires'
p304
asbag48
(g69
g50
NtRp305
(dp306
g53
(dp307
g80
g81
ssg62
g296
sg55
(lp308
S':'
asbag48
(g69
g50
NtRp309
(dp310
g53
(dp311
sg62
g296
sg55
(lp312
g48
(g49
g50
NtRp313
(dp314
g53
(dp315
g61
I3
ssg62
g309
sg55
(lp316
S''
asbasbasbag48
(g64
g50
NtRp317
(dp318
g53
(dp319
sg62
g250
sg55
(lp320
g48
(g69
g50
NtRp321
(dp322
g53
(dp323
g73
g74
ssg62
g317
sg55
(lp324
S'max-age'
p325
asbag48
(g69
g50
NtRp326
(dp327
g53
(dp328
g80
g81
ssg62
g317
sg55
(lp329
S':'
asbag48
(g69
g50
NtRp330
(dp331
g53
(dp332
sg62
g317
sg55
(lp333
g48
(g49
g50
NtRp334
(dp335
g53
(dp336
g61
I3
ssg62
g330
sg55
(lp337
S''
asbasbasbag48
(g64
g50
NtRp338
(dp339
g53
(dp340
sg62
g250
sg55
(lp341
g48
(g69
g50
NtRp342
(dp343
g53
(dp344
g73
g74
ssg62
g338
sg55
(lp345
S'path'
p346
asbag48
(g69
g50
NtRp347
(dp348
g53
(dp349
g80
g81
ssg62
g338
sg55
(lp350
S':'
asbag48
(g69
g50
NtRp351
(dp352
g53
(dp353
sg62
g338
sg55
(lp354
g48
(g49
g50
NtRp355
(dp356
g53
(dp357
g61
I3
ssg62
g351
sg55
(lp358
S''
asbasbasbag48
(g64
g50
NtRp359
(dp360
g53
(dp361
sg62
g250
sg55
(lp362
g48
(g69
g50
NtRp363
(dp364
g53
(dp365
g73
g74
ssg62
g359
sg55
(lp366
S'secure'
p367
asbag48
(g69
g50
NtRp368
(dp369
g53
(dp370
g80
g81
ssg62
g359
sg55
(lp371
S':'
asbag48
(g69
g50
NtRp372
(dp373
g53
(dp374
sg62
g359
sg55
(lp375
g48
(g49
g50
NtRp376
(dp377
g53
(dp378
g61
I3
ssg62
g372
sg55
(lp379
S''
asbasbasbag48
(g64
g50
NtRp380
(dp381
g53
(dp382
sg62
g250
sg55
(lp383
g48
(g69
g50
NtRp384
(dp385
g53
(dp386
g73
g74
ssg62
g380
sg55
(lp387
S'version'
p388
asbag48
(g69
g50
NtRp389
(dp390
g53
(dp391
g80
g81
ssg62
g380
sg55
(lp392
S':'
asbag48
(g69
g50
NtRp393
(dp394
g53
(dp395
sg62
g380
sg55
(lp396
g48
(g49
g50
NtRp397
(dp398
g53
(dp399
g61
I3
ssg62
g393
sg55
(lp400
S''
asbasbasbasbasbasbasbag48
(g64
g50
NtRp401
(dp402
g53
(dp403
sg62
g225
sg55
(lp404
g48
(g69
g50
NtRp405
(dp406
g53
(dp407
g73
g74
ssg62
g401
sg55
(lp408
S'session_id_init'
p409
asbag48
(g69
g50
NtRp410
(dp411
g53
(dp412
g80
g81
ssg62
g401
sg55
(lp413
S':'
asbag48
(g69
g50
NtRp414
(dp415
g53
(dp416
sg62
g401
sg55
(lp417
g48
(g49
g50
NtRp418
(dp419
g53
(dp420
g61
I4
ssg62
g414
sg55
(lp421
g48
(g57
g50
NtRp422
(dp423
g53
(dp424
g61
I3
ssg62
Nsg55
(lp425
g48
(g64
g50
NtRp426
(dp427
g53
(dp428
sg62
g422
sg55
(lp429
g48
(g69
g50
NtRp430
(dp431
g53
(dp432
g73
g74
ssg62
g426
sg55
(lp433
g262
asbag48
(g69
g50
NtRp434
(dp435
g53
(dp436
g80
g81
ssg62
g426
sg55
(lp437
S':'
asbag48
(g69
g50
NtRp438
(dp439
g53
(dp440
sg62
g426
sg55
(lp441
g48
(g49
g50
NtRp442
(dp443
g53
(dp444
g61
I3
ssg62
g438
sg55
(lp445
S''
asbasbasbag48
(g64
g50
NtRp446
(dp447
g53
(dp448
sg62
g422
sg55
(lp449
g48
(g69
g50
NtRp450
(dp451
g53
(dp452
g73
g74
ssg62
g446
sg55
(lp453
g283
asbag48
(g69
g50
NtRp454
(dp455
g53
(dp456
g80
g81
ssg62
g446
sg55
(lp457
S':'
asbag48
(g69
g50
NtRp458
(dp459
g53
(dp460
sg62
g446
sg55
(lp461
g48
(g49
g50
NtRp462
(dp463
g53
(dp464
g61
I3
ssg62
g458
sg55
(lp465
S''
asbasbasbag48
(g64
g50
NtRp466
(dp467
g53
(dp468
sg62
g422
sg55
(lp469
g48
(g69
g50
NtRp470
(dp471
g53
(dp472
g73
g74
ssg62
g466
sg55
(lp473
g304
asbag48
(g69
g50
NtRp474
(dp475
g53
(dp476
g80
g81
ssg62
g466
sg55
(lp477
S':'
asbag48
(g69
g50
NtRp478
(dp479
g53
(dp480
sg62
g466
sg55
(lp481
g48
(g49
g50
NtRp482
(dp483
g53
(dp484
g61
I3
ssg62
g478
sg55
(lp485
S''
asbasbasbag48
(g64
g50
NtRp486
(dp487
g53
(dp488
sg62
g422
sg55
(lp489
g48
(g69
g50
NtRp490
(dp491
g53
(dp492
g73
g74
ssg62
g486
sg55
(lp493
g325
asbag48
(g69
g50
NtRp494
(dp495
g53
(dp496
g80
g81
ssg62
g486
sg55
(lp497
S':'
asbag48
(g69
g50
NtRp498
(dp499
g53
(dp500
sg62
g486
sg55
(lp501
g48
(g49
g50
NtRp502
(dp503
g53
(dp504
g61
I3
ssg62
g498
sg55
(lp505
S''
asbasbasbag48
(g64
g50
NtRp506
(dp507
g53
(dp508
sg62
g422
sg55
(lp509
g48
(g69
g50
NtRp510
(dp511
g53
(dp512
g73
g74
ssg62
g506
sg55
(lp513
g346
asbag48
(g69
g50
NtRp514
(dp515
g53
(dp516
g80
g81
ssg62
g506
sg55
(lp517
S':'
asbag48
(g69
g50
NtRp518
(dp519
g53
(dp520
sg62
g506
sg55
(lp521
g48
(g49
g50
NtRp522
(dp523
g53
(dp524
g61
I3
ssg62
g518
sg55
(lp525
S''
asbasbasbag48
(g64
g50
NtRp526
(dp527
g53
(dp528
sg62
g422
sg55
(lp529
g48
(g69
g50
NtRp530
(dp531
g53
(dp532
g73
g74
ssg62
g526
sg55
(lp533
g367
asbag48
(g69
g50
NtRp534
(dp535
g53
(dp536
g80
g81
ssg62
g526
sg55
(lp537
S':'
asbag48
(g69
g50
NtRp538
(dp539
g53
(dp540
sg62
g526
sg55
(lp541
g48
(g49
g50
NtRp542
(dp543
g53
(dp544
g61
I3
ssg62
g538
sg55
(lp545
S''
asbasbasbag48
(g64
g50
NtRp546
(dp547
g53
(dp548
sg62
g422
sg55
(lp549
g48
(g69
g50
NtRp550
(dp551
g53
(dp552
g73
g74
ssg62
g546
sg55
(lp553
g388
asbag48
(g69
g50
NtRp554
(dp555
g53
(dp556
g80
g81
ssg62
g546
sg55
(lp557
S':'
asbag48
(g69
g50
NtRp558
(dp559
g53
(dp560
sg62
g546
sg55
(lp561
g48
(g49
g50
NtRp562
(dp563
g53
(dp564
g61
I3
ssg62
g558
sg55
(lp565
S''
asbasbasbasbasbasbasbag48
(g64
g50
NtRp566
(dp567
g53
(dp568
sg62
g225
sg55
(lp569
g48
(g69
g50
NtRp570
(dp571
g53
(dp572
g73
g74
ssg62
g566
sg55
(lp573
S'session_id_openopine'
p574
asbag48
(g69
g50
NtRp575
(dp576
g53
(dp577
g80
g81
ssg62
g566
sg55
(lp578
S':'
asbag48
(g69
g50
NtRp579
(dp580
g53
(dp581
sg62
g566
sg55
(lp582
g48
(g49
g50
NtRp583
(dp584
g53
(dp585
g61
I4
ssg62
g579
sg55
(lp586
g48
(g57
g50
NtRp587
(dp588
g53
(dp589
g61
I3
ssg62
Nsg55
(lp590
g48
(g64
g50
NtRp591
(dp592
g53
(dp593
sg62
g587
sg55
(lp594
g48
(g69
g50
NtRp595
(dp596
g53
(dp597
g73
g74
ssg62
g591
sg55
(lp598
g262
asbag48
(g69
g50
NtRp599
(dp600
g53
(dp601
g80
g81
ssg62
g591
sg55
(lp602
S':'
asbag48
(g69
g50
NtRp603
(dp604
g53
(dp605
sg62
g591
sg55
(lp606
g48
(g49
g50
NtRp607
(dp608
g53
(dp609
g61
I3
ssg62
g603
sg55
(lp610
S''
asbasbasbag48
(g64
g50
NtRp611
(dp612
g53
(dp613
sg62
g587
sg55
(lp614
g48
(g69
g50
NtRp615
(dp616
g53
(dp617
g73
g74
ssg62
g611
sg55
(lp618
g283
asbag48
(g69
g50
NtRp619
(dp620
g53
(dp621
g80
g81
ssg62
g611
sg55
(lp622
S':'
asbag48
(g69
g50
NtRp623
(dp624
g53
(dp625
sg62
g611
sg55
(lp626
g48
(g49
g50
NtRp627
(dp628
g53
(dp629
g61
I3
ssg62
g623
sg55
(lp630
S''
asbasbasbag48
(g64
g50
NtRp631
(dp632
g53
(dp633
sg62
g587
sg55
(lp634
g48
(g69
g50
NtRp635
(dp636
g53
(dp637
g73
g74
ssg62
g631
sg55
(lp638
g304
asbag48
(g69
g50
NtRp639
(dp640
g53
(dp641
g80
g81
ssg62
g631
sg55
(lp642
S':'
asbag48
(g69
g50
NtRp643
(dp644
g53
(dp645
sg62
g631
sg55
(lp646
g48
(g49
g50
NtRp647
(dp648
g53
(dp649
g61
I3
ssg62
g643
sg55
(lp650
S''
asbasbasbag48
(g64
g50
NtRp651
(dp652
g53
(dp653
sg62
g587
sg55
(lp654
g48
(g69
g50
NtRp655
(dp656
g53
(dp657
g73
g74
ssg62
g651
sg55
(lp658
g325
asbag48
(g69
g50
NtRp659
(dp660
g53
(dp661
g80
g81
ssg62
g651
sg55
(lp662
S':'
asbag48
(g69
g50
NtRp663
(dp664
g53
(dp665
sg62
g651
sg55
(lp666
g48
(g49
g50
NtRp667
(dp668
g53
(dp669
g61
I3
ssg62
g663
sg55
(lp670
S''
asbasbasbag48
(g64
g50
NtRp671
(dp672
g53
(dp673
sg62
g587
sg55
(lp674
g48
(g69
g50
NtRp675
(dp676
g53
(dp677
g73
g74
ssg62
g671
sg55
(lp678
g346
asbag48
(g69
g50
NtRp679
(dp680
g53
(dp681
g80
g81
ssg62
g671
sg55
(lp682
S':'
asbag48
(g69
g50
NtRp683
(dp684
g53
(dp685
sg62
g671
sg55
(lp686
g48
(g49
g50
NtRp687
(dp688
g53
(dp689
g61
I3
ssg62
g683
sg55
(lp690
S''
asbasbasbag48
(g64
g50
NtRp691
(dp692
g53
(dp693
sg62
g587
sg55
(lp694
g48
(g69
g50
NtRp695
(dp696
g53
(dp697
g73
g74
ssg62
g691
sg55
(lp698
g367
asbag48
(g69
g50
NtRp699
(dp700
g53
(dp701
g80
g81
ssg62
g691
sg55
(lp702
S':'
asbag48
(g69
g50
NtRp703
(dp704
g53
(dp705
sg62
g691
sg55
(lp706
g48
(g49
g50
NtRp707
(dp708
g53
(dp709
g61
I3
ssg62
g703
sg55
(lp710
S''
asbasbasbag48
(g64
g50
NtRp711
(dp712
g53
(dp713
sg62
g587
sg55
(lp714
g48
(g69
g50
NtRp715
(dp716
g53
(dp717
g73
g74
ssg62
g711
sg55
(lp718
g388
asbag48
(g69
g50
NtRp719
(dp720
g53
(dp721
g80
g81
ssg62
g711
sg55
(lp722
S':'
asbag48
(g69
g50
NtRp723
(dp724
g53
(dp725
sg62
g711
sg55
(lp726
g48
(g49
g50
NtRp727
(dp728
g53
(dp729
g61
I3
ssg62
g723
sg55
(lp730
S''
asbasbasbasbasbasbasbasbasbasbasbag48
(g64
g50
NtRp731
(dp732
g53
(dp733
sg62
g58
sg55
(lp734
g48
(g69
g50
NtRp735
(dp736
g53
(dp737
g73
g74
ssg62
g731
sg55
(lp738
S'env'
p739
asbag48
(g69
g50
NtRp740
(dp741
g53
(dp742
g80
g81
ssg62
g731
sg55
(lp743
S':'
asbag48
(g69
g50
NtRp744
(dp745
g53
(dp746
sg62
g731
sg55
(lp747
g48
(g49
g50
NtRp748
(dp749
g53
(dp750
g61
I5
ssg62
g744
sg55
(lp751
g48
(g57
g50
NtRp752
(dp753
g53
(dp754
g61
I4
ssg62
Nsg55
(lp755
g48
(g64
g50
NtRp756
(dp757
g53
(dp758
sg62
g752
sg55
(lp759
g48
(g69
g50
NtRp760
(dp761
g53
(dp762
g73
g74
ssg62
g756
sg55
(lp763
S'app_folders'
p764
asbag48
(g69
g50
NtRp765
(dp766
g53
(dp767
g80
g81
ssg62
g756
sg55
(lp768
S':'
asbag48
(g69
g50
NtRp769
(dp770
g53
(dp771
sg62
g756
sg55
(lp772
g48
(g49
g50
NtRp773
(dp774
g53
(dp775
g61
I4
ssg62
g769
sg55
(lp776
S"set(['C:\\\\Users\\\\Do It\\\\Desktop\\\\web2py_opine\\\\web2py\\\\applications\\\\init\\\\', 'C:\\\\Users\\\\Do It\\\\Desktop\\\\web2py_opine\\\\web2py\\\\applications\\\\admin\\\\', 'C:\\\\Users\\\\Do It\\\\Desktop\\\\web2py_opine\\\\web2py\\\\applications\\\\openopine\\\\'])"
p777
asbasbasbag48
(g64
g50
NtRp778
(dp779
g53
(dp780
sg62
g752
sg55
(lp781
g48
(g69
g50
NtRp782
(dp783
g53
(dp784
g73
g74
ssg62
g778
sg55
(lp785
S'applications_parent'
p786
asbag48
(g69
g50
NtRp787
(dp788
g53
(dp789
g80
g81
ssg62
g778
sg55
(lp790
S':'
asbag48
(g69
g50
NtRp791
(dp792
g53
(dp793
sg62
g778
sg55
(lp794
g48
(g49
g50
NtRp795
(dp796
g53
(dp797
g61
I4
ssg62
g791
sg55
(lp798
S'C:\\Users\\Do It\\Desktop\\web2py_opine\\web2py'
p799
asbasbasbag48
(g64
g50
NtRp800
(dp801
g53
(dp802
sg62
g752
sg55
(lp803
g48
(g69
g50
NtRp804
(dp805
g53
(dp806
g73
g74
ssg62
g800
sg55
(lp807
S'cmd_args'
p808
asbag48
(g69
g50
NtRp809
(dp810
g53
(dp811
g80
g81
ssg62
g800
sg55
(lp812
S':'
asbag48
(g69
g50
NtRp813
(dp814
g53
(dp815
sg62
g800
sg55
(lp816
g48
(g49
g50
NtRp817
(dp818
g53
(dp819
g61
I4
ssg62
g813
sg55
(lp820
g48
(g57
g50
NtRp821
(dp822
g53
(dp823
g61
I3
ssg62
Nsg55
(lp824
sbasbasbasbag48
(g64
g50
NtRp825
(dp826
g53
(dp827
sg62
g752
sg55
(lp828
g48
(g69
g50
NtRp829
(dp830
g53
(dp831
g73
g74
ssg62
g825
sg55
(lp832
S'cmd_options'
p833
asbag48
(g69
g50
NtRp834
(dp835
g53
(dp836
g80
g81
ssg62
g825
sg55
(lp837
S':'
asbag48
(g69
g50
NtRp838
(dp839
g53
(dp840
sg62
g825
sg55
(lp841
g48
(g49
g50
NtRp842
(dp843
g53
(dp844
g61
I4
ssg62
g838
sg55
(lp845
S"<Values at 0x2b82260: {'verbose': False, 'ip': '127.0.0.1', 'shutdown_timeout': 5, 'taskbar': False, 'nocron': False, 'pid_filename': 'httpserver.pid', 'maxthreads': None, 'softcron': False, 'server_name': 'Double', 'bpython': False, 'nogui': False, 'port': 8000, 'extcron': False, 'debuglevel': 30, 'test': None, 'folder': 'C:\\\\Users\\\\Do It\\\\Desktop\\\\web2py_opine\\\\web2py', 'config': '', 'import_models': False, 'winservice': '', 'shell': None, 'run': '', 'log_filename': 'httpserver.log', 'args': [''], 'ssl_ca_certificate': None, 'scheduler': None, 'profiler_filename': None, 'ssl_private_key': '', 'password': '<ask>', 'request_queue_size': 5, 'ssl_certificate': '', 'cronjob': False, 'plain': False, 'quiet': False, 'interfaces': None, 'minthreads': None, 'timeout': 10, 'numthreads': None, 'nobanner': False}>"
p846
asbasbasbag48
(g64
g50
NtRp847
(dp848
g53
(dp849
sg62
g752
sg55
(lp850
g48
(g69
g50
NtRp851
(dp852
g53
(dp853
g73
g74
ssg62
g847
sg55
(lp854
S'db_sessions'
p855
asbag48
(g69
g50
NtRp856
(dp857
g53
(dp858
g80
g81
ssg62
g847
sg55
(lp859
S':'
asbag48
(g69
g50
NtRp860
(dp861
g53
(dp862
sg62
g847
sg55
(lp863
g48
(g49
g50
NtRp864
(dp865
g53
(dp866
g61
I4
ssg62
g860
sg55
(lp867
S'set([])'
p868
asbasbasbag48
(g64
g50
NtRp869
(dp870
g53
(dp871
sg62
g752
sg55
(lp872
g48
(g69
g50
NtRp873
(dp874
g53
(dp875
g73
g74
ssg62
g869
sg55
(lp876
S'debugging'
p877
asbag48
(g69
g50
NtRp878
(dp879
g53
(dp880
g80
g81
ssg62
g869
sg55
(lp881
S':'
asbag48
(g69
g50
NtRp882
(dp883
g53
(dp884
sg62
g869
sg55
(lp885
g48
(g49
g50
NtRp886
(dp887
g53
(dp888
g61
I4
ssg62
g882
sg55
(lp889
g91
asbasbasbag48
(g64
g50
NtRp890
(dp891
g53
(dp892
sg62
g752
sg55
(lp893
g48
(g69
g50
NtRp894
(dp895
g53
(dp896
g73
g74
ssg62
g890
sg55
(lp897
S'gluon_parent'
p898
asbag48
(g69
g50
NtRp899
(dp900
g53
(dp901
g80
g81
ssg62
g890
sg55
(lp902
S':'
asbag48
(g69
g50
NtRp903
(dp904
g53
(dp905
sg62
g890
sg55
(lp906
g48
(g49
g50
NtRp907
(dp908
g53
(dp909
g61
I4
ssg62
g903
sg55
(lp910
S'C:\\Users\\Do It\\Desktop\\web2py_opine\\web2py'
p911
asbasbasbag48
(g64
g50
NtRp912
(dp913
g53
(dp914
sg62
g752
sg55
(lp915
g48
(g69
g50
NtRp916
(dp917
g53
(dp918
g73
g74
ssg62
g912
sg55
(lp919
S'http_accept'
p920
asbag48
(g69
g50
NtRp921
(dp922
g53
(dp923
g80
g81
ssg62
g912
sg55
(lp924
S':'
asbag48
(g69
g50
NtRp925
(dp926
g53
(dp927
sg62
g912
sg55
(lp928
g48
(g49
g50
NtRp929
(dp930
g53
(dp931
g61
I4
ssg62
g925
sg55
(lp932
S'text/html,application/xhtml+xml,application/xml;q=0.9,*/*;q=0.8'
p933
asbasbasbag48
(g64
g50
NtRp934
(dp935
g53
(dp936
sg62
g752
sg55
(lp937
g48
(g69
g50
NtRp938
(dp939
g53
(dp940
g73
g74
ssg62
g934
sg55
(lp941
S'http_accept_charset'
p942
asbag48
(g69
g50
NtRp943
(dp944
g53
(dp945
g80
g81
ssg62
g934
sg55
(lp946
S':'
asbag48
(g69
g50
NtRp947
(dp948
g53
(dp949
sg62
g934
sg55
(lp950
g48
(g49
g50
NtRp951
(dp952
g53
(dp953
g61
I4
ssg62
g947
sg55
(lp954
S'ISO-8859-1,utf-8;q=0.7,*;q=0.7'
p955
asbasbasbag48
(g64
g50
NtRp956
(dp957
g53
(dp958
sg62
g752
sg55
(lp959
g48
(g69
g50
NtRp960
(dp961
g53
(dp962
g73
g74
ssg62
g956
sg55
(lp963
S'http_accept_encoding'
p964
asbag48
(g69
g50
NtRp965
(dp966
g53
(dp967
g80
g81
ssg62
g956
sg55
(lp968
S':'
asbag48
(g69
g50
NtRp969
(dp970
g53
(dp971
sg62
g956
sg55
(lp972
g48
(g49
g50
NtRp973
(dp974
g53
(dp975
g61
I4
ssg62
g969
sg55
(lp976
S'gzip, deflate'
p977
asbasbasbag48
(g64
g50
NtRp978
(dp979
g53
(dp980
sg62
g752
sg55
(lp981
g48
(g69
g50
NtRp982
(dp983
g53
(dp984
g73
g74
ssg62
g978
sg55
(lp985
S'http_accept_language'
p986
asbag48
(g69
g50
NtRp987
(dp988
g53
(dp989
g80
g81
ssg62
g978
sg55
(lp990
S':'
asbag48
(g69
g50
NtRp991
(dp992
g53
(dp993
sg62
g978
sg55
(lp994
g48
(g49
g50
NtRp995
(dp996
g53
(dp997
g61
I4
ssg62
g991
sg55
(lp998
S'en-us,en;q=0.5'
p999
asbasbasbag48
(g64
g50
NtRp1000
(dp1001
g53
(dp1002
sg62
g752
sg55
(lp1003
g48
(g69
g50
NtRp1004
(dp1005
g53
(dp1006
g73
g74
ssg62
g1000
sg55
(lp1007
S'http_connection'
p1008
asbag48
(g69
g50
NtRp1009
(dp1010
g53
(dp1011
g80
g81
ssg62
g1000
sg55
(lp1012
S':'
asbag48
(g69
g50
NtRp1013
(dp1014
g53
(dp1015
sg62
g1000
sg55
(lp1016
g48
(g49
g50
NtRp1017
(dp1018
g53
(dp1019
g61
I4
ssg62
g1013
sg55
(lp1020
S'keep-alive'
p1021
asbasbasbag48
(g64
g50
NtRp1022
(dp1023
g53
(dp1024
sg62
g752
sg55
(lp1025
g48
(g69
g50
NtRp1026
(dp1027
g53
(dp1028
g73
g74
ssg62
g1022
sg55
(lp1029
S'http_cookie'
p1030
asbag48
(g69
g50
NtRp1031
(dp1032
g53
(dp1033
g80
g81
ssg62
g1022
sg55
(lp1034
S':'
asbag48
(g69
g50
NtRp1035
(dp1036
g53
(dp1037
sg62
g1022
sg55
(lp1038
g48
(g49
g50
NtRp1039
(dp1040
g53
(dp1041
g61
I4
ssg62
g1035
sg55
(lp1042
S'session_id_init=127.0.0.1-2d10a858-8feb-475a-9405-95a5d24ad444; session_id_admin=127.0.0.1-9f038b59-41c0-486b-b848-833bf2afd101; session_id_openopine=127.0.0.1-6af870fb-36cb-44a3-8da3-b85058e677dd'
p1043
asbasbasbag48
(g64
g50
NtRp1044
(dp1045
g53
(dp1046
sg62
g752
sg55
(lp1047
g48
(g69
g50
NtRp1048
(dp1049
g53
(dp1050
g73
g74
ssg62
g1044
sg55
(lp1051
S'http_host'
p1052
asbag48
(g69
g50
NtRp1053
(dp1054
g53
(dp1055
g80
g81
ssg62
g1044
sg55
(lp1056
S':'
asbag48
(g69
g50
NtRp1057
(dp1058
g53
(dp1059
sg62
g1044
sg55
(lp1060
g48
(g49
g50
NtRp1061
(dp1062
g53
(dp1063
g61
I4
ssg62
g1057
sg55
(lp1064
S'127.0.0.1:8000'
p1065
asbasbasbag48
(g64
g50
NtRp1066
(dp1067
g53
(dp1068
sg62
g752
sg55
(lp1069
g48
(g69
g50
NtRp1070
(dp1071
g53
(dp1072
g73
g74
ssg62
g1066
sg55
(lp1073
S'http_user_agent'
p1074
asbag48
(g69
g50
NtRp1075
(dp1076
g53
(dp1077
g80
g81
ssg62
g1066
sg55
(lp1078
S':'
asbag48
(g69
g50
NtRp1079
(dp1080
g53
(dp1081
sg62
g1066
sg55
(lp1082
g48
(g49
g50
NtRp1083
(dp1084
g53
(dp1085
g61
I4
ssg62
g1079
sg55
(lp1086
S'Mozilla/5.0 (Windows NT 6.1; WOW64; rv:8.0) Gecko/20100101 Firefox/8.0'
p1087
asbasbasbag48
(g64
g50
NtRp1088
(dp1089
g53
(dp1090
sg62
g752
sg55
(lp1091
g48
(g69
g50
NtRp1092
(dp1093
g53
(dp1094
g73
g74
ssg62
g1088
sg55
(lp1095
S'is_jython'
p1096
asbag48
(g69
g50
NtRp1097
(dp1098
g53
(dp1099
g80
g81
ssg62
g1088
sg55
(lp1100
S':'
asbag48
(g69
g50
NtRp1101
(dp1102
g53
(dp1103
sg62
g1088
sg55
(lp1104
g48
(g49
g50
NtRp1105
(dp1106
g53
(dp1107
g61
I4
ssg62
g1101
sg55
(lp1108
g91
asbasbasbag48
(g64
g50
NtRp1109
(dp1110
g53
(dp1111
sg62
g752
sg55
(lp1112
g48
(g69
g50
NtRp1113
(dp1114
g53
(dp1115
g73
g74
ssg62
g1109
sg55
(lp1116
S'path_info'
p1117
asbag48
(g69
g50
NtRp1118
(dp1119
g53
(dp1120
g80
g81
ssg62
g1109
sg55
(lp1121
S':'
asbag48
(g69
g50
NtRp1122
(dp1123
g53
(dp1124
sg62
g1109
sg55
(lp1125
g48
(g49
g50
NtRp1126
(dp1127
g53
(dp1128
g61
I4
ssg62
g1122
sg55
(lp1129
S'/openopine/default/index'
p1130
asbasbasbag48
(g64
g50
NtRp1131
(dp1132
g53
(dp1133
sg62
g752
sg55
(lp1134
g48
(g69
g50
NtRp1135
(dp1136
g53
(dp1137
g73
g74
ssg62
g1131
sg55
(lp1138
S'query_string'
p1139
asbag48
(g69
g50
NtRp1140
(dp1141
g53
(dp1142
g80
g81
ssg62
g1131
sg55
(lp1143
S':'
asbag48
(g69
g50
NtRp1144
(dp1145
g53
(dp1146
sg62
g1131
sg55
(lp1147
g48
(g49
g50
NtRp1148
(dp1149
g53
(dp1150
g61
I4
ssg62
g1144
sg55
(lp1151
S''
asbasbasbag48
(g64
g50
NtRp1152
(dp1153
g53
(dp1154
sg62
g752
sg55
(lp1155
g48
(g69
g50
NtRp1156
(dp1157
g53
(dp1158
g73
g74
ssg62
g1152
sg55
(lp1159
S'remote_addr'
p1160
asbag48
(g69
g50
NtRp1161
(dp1162
g53
(dp1163
g80
g81
ssg62
g1152
sg55
(lp1164
S':'
asbag48
(g69
g50
NtRp1165
(dp1166
g53
(dp1167
sg62
g1152
sg55
(lp1168
g48
(g49
g50
NtRp1169
(dp1170
g53
(dp1171
g61
I4
ssg62
g1165
sg55
(lp1172
g181
asbasbasbag48
(g64
g50
NtRp1173
(dp1174
g53
(dp1175
sg62
g752
sg55
(lp1176
g48
(g69
g50
NtRp1177
(dp1178
g53
(dp1179
g73
g74
ssg62
g1173
sg55
(lp1180
S'remote_port'
p1181
asbag48
(g69
g50
NtRp1182
(dp1183
g53
(dp1184
g80
g81
ssg62
g1173
sg55
(lp1185
S':'
asbag48
(g69
g50
NtRp1186
(dp1187
g53
(dp1188
sg62
g1173
sg55
(lp1189
g48
(g49
g50
NtRp1190
(dp1191
g53
(dp1192
g61
I4
ssg62
g1186
sg55
(lp1193
S'49637'
p1194
asbasbasbag48
(g64
g50
NtRp1195
(dp1196
g53
(dp1197
sg62
g752
sg55
(lp1198
g48
(g69
g50
NtRp1199
(dp1200
g53
(dp1201
g73
g74
ssg62
g1195
sg55
(lp1202
S'request_method'
p1203
asbag48
(g69
g50
NtRp1204
(dp1205
g53
(dp1206
g80
g81
ssg62
g1195
sg55
(lp1207
S':'
asbag48
(g69
g50
NtRp1208
(dp1209
g53
(dp1210
sg62
g1195
sg55
(lp1211
g48
(g49
g50
NtRp1212
(dp1213
g53
(dp1214
g61
I4
ssg62
g1208
sg55
(lp1215
S'GET'
p1216
asbasbasbag48
(g64
g50
NtRp1217
(dp1218
g53
(dp1219
sg62
g752
sg55
(lp1220
g48
(g69
g50
NtRp1221
(dp1222
g53
(dp1223
g73
g74
ssg62
g1217
sg55
(lp1224
S'script_name'
p1225
asbag48
(g69
g50
NtRp1226
(dp1227
g53
(dp1228
g80
g81
ssg62
g1217
sg55
(lp1229
S':'
asbag48
(g69
g50
NtRp1230
(dp1231
g53
(dp1232
sg62
g1217
sg55
(lp1233
g48
(g49
g50
NtRp1234
(dp1235
g53
(dp1236
g61
I4
ssg62
g1230
sg55
(lp1237
S''
asbasbasbag48
(g64
g50
NtRp1238
(dp1239
g53
(dp1240
sg62
g752
sg55
(lp1241
g48
(g69
g50
NtRp1242
(dp1243
g53
(dp1244
g73
g74
ssg62
g1238
sg55
(lp1245
S'server_name'
p1246
asbag48
(g69
g50
NtRp1247
(dp1248
g53
(dp1249
g80
g81
ssg62
g1238
sg55
(lp1250
S':'
asbag48
(g69
g50
NtRp1251
(dp1252
g53
(dp1253
sg62
g1238
sg55
(lp1254
g48
(g49
g50
NtRp1255
(dp1256
g53
(dp1257
g61
I4
ssg62
g1251
sg55
(lp1258
S'Double'
p1259
asbasbasbag48
(g64
g50
NtRp1260
(dp1261
g53
(dp1262
sg62
g752
sg55
(lp1263
g48
(g69
g50
NtRp1264
(dp1265
g53
(dp1266
g73
g74
ssg62
g1260
sg55
(lp1267
S'server_port'
p1268
asbag48
(g69
g50
NtRp1269
(dp1270
g53
(dp1271
g80
g81
ssg62
g1260
sg55
(lp1272
S':'
asbag48
(g69
g50
NtRp1273
(dp1274
g53
(dp1275
sg62
g1260
sg55
(lp1276
g48
(g49
g50
NtRp1277
(dp1278
g53
(dp1279
g61
I4
ssg62
g1273
sg55
(lp1280
S'8000'
p1281
asbasbasbag48
(g64
g50
NtRp1282
(dp1283
g53
(dp1284
sg62
g752
sg55
(lp1285
g48
(g69
g50
NtRp1286
(dp1287
g53
(dp1288
g73
g74
ssg62
g1282
sg55
(lp1289
S'server_protocol'
p1290
asbag48
(g69
g50
NtRp1291
(dp1292
g53
(dp1293
g80
g81
ssg62
g1282
sg55
(lp1294
S':'
asbag48
(g69
g50
NtRp1295
(dp1296
g53
(dp1297
sg62
g1282
sg55
(lp1298
g48
(g49
g50
NtRp1299
(dp1300
g53
(dp1301
g61
I4
ssg62
g1295
sg55
(lp1302
S'HTTP/1.1'
p1303
asbasbasbag48
(g64
g50
NtRp1304
(dp1305
g53
(dp1306
sg62
g752
sg55
(lp1307
g48
(g69
g50
NtRp1308
(dp1309
g53
(dp1310
g73
g74
ssg62
g1304
sg55
(lp1311
S'server_software'
p1312
asbag48
(g69
g50
NtRp1313
(dp1314
g53
(dp1315
g80
g81
ssg62
g1304
sg55
(lp1316
S':'
asbag48
(g69
g50
NtRp1317
(dp1318
g53
(dp1319
sg62
g1304
sg55
(lp1320
g48
(g49
g50
NtRp1321
(dp1322
g53
(dp1323
g61
I4
ssg62
g1317
sg55
(lp1324
S'Rocket 1.2.4'
p1325
asbasbasbag48
(g64
g50
NtRp1326
(dp1327
g53
(dp1328
sg62
g752
sg55
(lp1329
g48
(g69
g50
NtRp1330
(dp1331
g53
(dp1332
g73
g74
ssg62
g1326
sg55
(lp1333
S'web2py_crontype'
p1334
asbag48
(g69
g50
NtRp1335
(dp1336
g53
(dp1337
g80
g81
ssg62
g1326
sg55
(lp1338
S':'
asbag48
(g69
g50
NtRp1339
(dp1340
g53
(dp1341
sg62
g1326
sg55
(lp1342
g48
(g49
g50
NtRp1343
(dp1344
g53
(dp1345
g61
I4
ssg62
g1339
sg55
(lp1346
S'hard'
p1347
asbasbasbag48
(g64
g50
NtRp1348
(dp1349
g53
(dp1350
sg62
g752
sg55
(lp1351
g48
(g69
g50
NtRp1352
(dp1353
g53
(dp1354
g73
g74
ssg62
g1348
sg55
(lp1355
S'web2py_path'
p1356
asbag48
(g69
g50
NtRp1357
(dp1358
g53
(dp1359
g80
g81
ssg62
g1348
sg55
(lp1360
S':'
asbag48
(g69
g50
NtRp1361
(dp1362
g53
(dp1363
sg62
g1348
sg55
(lp1364
g48
(g49
g50
NtRp1365
(dp1366
g53
(dp1367
g61
I4
ssg62
g1361
sg55
(lp1368
g799
asbasbasbag48
(g64
g50
NtRp1369
(dp1370
g53
(dp1371
sg62
g752
sg55
(lp1372
g48
(g69
g50
NtRp1373
(dp1374
g53
(dp1375
g73
g74
ssg62
g1369
sg55
(lp1376
S'web2py_version'
p1377
asbag48
(g69
g50
NtRp1378
(dp1379
g53
(dp1380
g80
g81
ssg62
g1369
sg55
(lp1381
S':'
asbag48
(g69
g50
NtRp1382
(dp1383
g53
(dp1384
sg62
g1369
sg55
(lp1385
g48
(g49
g50
NtRp1386
(dp1387
g53
(dp1388
g61
I4
ssg62
g1382
sg55
(lp1389
g48
(g57
g50
NtRp1390
(dp1391
g53
(dp1392
g61
I3
ssg62
Nsg55
(lp1393
g48
(g64
g50
NtRp1394
(dp1395
g53
(dp1396
sg62
g1390
sg55
(lp1397
g48
(g69
g50
NtRp1398
(dp1399
g53
(dp1400
sg62
g1394
sg55
(lp1401
g48
(g49
g50
NtRp1402
(dp1403
g53
(dp1404
g61
I3
ssg62
g1398
sg55
(lp1405
S'1'
asbasbasbag48
(g64
g50
NtRp1406
(dp1407
g53
(dp1408
sg62
g1390
sg55
(lp1409
g48
(g69
g50
NtRp1410
(dp1411
g53
(dp1412
sg62
g1406
sg55
(lp1413
g48
(g49
g50
NtRp1414
(dp1415
g53
(dp1416
g61
I3
ssg62
g1410
sg55
(lp1417
S'99'
p1418
asbasbasbag48
(g64
g50
NtRp1419
(dp1420
g53
(dp1421
sg62
g1390
sg55
(lp1422
g48
(g69
g50
NtRp1423
(dp1424
g53
(dp1425
sg62
g1419
sg55
(lp1426
g48
(g49
g50
NtRp1427
(dp1428
g53
(dp1429
g61
I3
ssg62
g1423
sg55
(lp1430
S'2'
asbasbasbag48
(g64
g50
NtRp1431
(dp1432
g53
(dp1433
sg62
g1390
sg55
(lp1434
g48
(g69
g50
NtRp1435
(dp1436
g53
(dp1437
sg62
g1431
sg55
(lp1438
g48
(g49
g50
NtRp1439
(dp1440
g53
(dp1441
g61
I3
ssg62
g1435
sg55
(lp1442
S'datetime.datetime(2011, 9, 26, 6, 55, 33)'
p1443
asbasbasbag48
(g64
g50
NtRp1444
(dp1445
g53
(dp1446
sg62
g1390
sg55
(lp1447
g48
(g69
g50
NtRp1448
(dp1449
g53
(dp1450
sg62
g1444
sg55
(lp1451
g48
(g49
g50
NtRp1452
(dp1453
g53
(dp1454
g61
I3
ssg62
g1448
sg55
(lp1455
S'stable'
p1456
asbasbasbasbasbasbasbag48
(g64
g50
NtRp1457
(dp1458
g53
(dp1459
sg62
g752
sg55
(lp1460
g48
(g69
g50
NtRp1461
(dp1462
g53
(dp1463
g73
g74
ssg62
g1457
sg55
(lp1464
S'wsgi_errors'
p1465
asbag48
(g69
g50
NtRp1466
(dp1467
g53
(dp1468
g80
g81
ssg62
g1457
sg55
(lp1469
S':'
asbag48
(g69
g50
NtRp1470
(dp1471
g53
(dp1472
sg62
g1457
sg55
(lp1473
g48
(g49
g50
NtRp1474
(dp1475
g53
(dp1476
g61
I4
ssg62
g1470
sg55
(lp1477
S"<open file '<stderr>', mode 'w' at 0x01CD00B0>"
p1478
asbasbasbag48
(g64
g50
NtRp1479
(dp1480
g53
(dp1481
sg62
g752
sg55
(lp1482
g48
(g69
g50
NtRp1483
(dp1484
g53
(dp1485
g73
g74
ssg62
g1479
sg55
(lp1486
S'wsgi_file_wrapper'
p1487
asbag48
(g69
g50
NtRp1488
(dp1489
g53
(dp1490
g80
g81
ssg62
g1479
sg55
(lp1491
S':'
asbag48
(g69
g50
NtRp1492
(dp1493
g53
(dp1494
sg62
g1479
sg55
(lp1495
g48
(g49
g50
NtRp1496
(dp1497
g53
(dp1498
g61
I4
ssg62
g1492
sg55
(lp1499
S'<class wsgiref.util.FileWrapper at 0x02AAAC30>'
p1500
asbasbasbag48
(g64
g50
NtRp1501
(dp1502
g53
(dp1503
sg62
g752
sg55
(lp1504
g48
(g69
g50
NtRp1505
(dp1506
g53
(dp1507
g73
g74
ssg62
g1501
sg55
(lp1508
S'wsgi_input'
p1509
asbag48
(g69
g50
NtRp1510
(dp1511
g53
(dp1512
g80
g81
ssg62
g1501
sg55
(lp1513
S':'
asbag48
(g69
g50
NtRp1514
(dp1515
g53
(dp1516
sg62
g1501
sg55
(lp1517
g48
(g49
g50
NtRp1518
(dp1519
g53
(dp1520
g61
I4
ssg62
g1514
sg55
(lp1521
S'<socket._fileobject object at 0x02B7CA70>'
p1522
asbasbasbag48
(g64
g50
NtRp1523
(dp1524
g53
(dp1525
sg62
g752
sg55
(lp1526
g48
(g69
g50
NtRp1527
(dp1528
g53
(dp1529
g73
g74
ssg62
g1523
sg55
(lp1530
S'wsgi_multiprocess'
p1531
asbag48
(g69
g50
NtRp1532
(dp1533
g53
(dp1534
g80
g81
ssg62
g1523
sg55
(lp1535
S':'
asbag48
(g69
g50
NtRp1536
(dp1537
g53
(dp1538
sg62
g1523
sg55
(lp1539
g48
(g49
g50
NtRp1540
(dp1541
g53
(dp1542
g61
I4
ssg62
g1536
sg55
(lp1543
g91
asbasbasbag48
(g64
g50
NtRp1544
(dp1545
g53
(dp1546
sg62
g752
sg55
(lp1547
g48
(g69
g50
NtRp1548
(dp1549
g53
(dp1550
g73
g74
ssg62
g1544
sg55
(lp1551
S'wsgi_multithread'
p1552
asbag48
(g69
g50
NtRp1553
(dp1554
g53
(dp1555
g80
g81
ssg62
g1544
sg55
(lp1556
S':'
asbag48
(g69
g50
NtRp1557
(dp1558
g53
(dp1559
sg62
g1544
sg55
(lp1560
g48
(g49
g50
NtRp1561
(dp1562
g53
(dp1563
g61
I4
ssg62
g1557
sg55
(lp1564
S'True'
p1565
asbasbasbag48
(g64
g50
NtRp1566
(dp1567
g53
(dp1568
sg62
g752
sg55
(lp1569
g48
(g69
g50
NtRp1570
(dp1571
g53
(dp1572
g73
g74
ssg62
g1566
sg55
(lp1573
S'wsgi_run_once'
p1574
asbag48
(g69
g50
NtRp1575
(dp1576
g53
(dp1577
g80
g81
ssg62
g1566
sg55
(lp1578
S':'
asbag48
(g69
g50
NtRp1579
(dp1580
g53
(dp1581
sg62
g1566
sg55
(lp1582
g48
(g49
g50
NtRp1583
(dp1584
g53
(dp1585
g61
I4
ssg62
g1579
sg55
(lp1586
g91
asbasbasbag48
(g64
g50
NtRp1587
(dp1588
g53
(dp1589
sg62
g752
sg55
(lp1590
g48
(g69
g50
NtRp1591
(dp1592
g53
(dp1593
g73
g74
ssg62
g1587
sg55
(lp1594
S'wsgi_url_scheme'
p1595
asbag48
(g69
g50
NtRp1596
(dp1597
g53
(dp1598
g80
g81
ssg62
g1587
sg55
(lp1599
S':'
asbag48
(g69
g50
NtRp1600
(dp1601
g53
(dp1602
sg62
g1587
sg55
(lp1603
g48
(g49
g50
NtRp1604
(dp1605
g53
(dp1606
g61
I4
ssg62
g1600
sg55
(lp1607
S'http'
p1608
asbasbasbag48
(g64
g50
NtRp1609
(dp1610
g53
(dp1611
sg62
g752
sg55
(lp1612
g48
(g69
g50
NtRp1613
(dp1614
g53
(dp1615
g73
g74
ssg62
g1609
sg55
(lp1616
S'wsgi_version'
p1617
asbag48
(g69
g50
NtRp1618
(dp1619
g53
(dp1620
g80
g81
ssg62
g1609
sg55
(lp1621
S':'
asbag48
(g69
g50
NtRp1622
(dp1623
g53
(dp1624
sg62
g1609
sg55
(lp1625
g48
(g49
g50
NtRp1626
(dp1627
g53
(dp1628
g61
I4
ssg62
g1622
sg55
(lp1629
g48
(g57
g50
NtRp1630
(dp1631
g53
(dp1632
g61
I3
ssg62
Nsg55
(lp1633
g48
(g64
g50
NtRp1634
(dp1635
g53
(dp1636
sg62
g1630
sg55
(lp1637
g48
(g69
g50
NtRp1638
(dp1639
g53
(dp1640
sg62
g1634
sg55
(lp1641
g48
(g49
g50
NtRp1642
(dp1643
g53
(dp1644
g61
I3
ssg62
g1638
sg55
(lp1645
S'1'
asbasbasbag48
(g64
g50
NtRp1646
(dp1647
g53
(dp1648
sg62
g1630
sg55
(lp1649
g48
(g69
g50
NtRp1650
(dp1651
g53
(dp1652
sg62
g1646
sg55
(lp1653
g48
(g49
g50
NtRp1654
(dp1655
g53
(dp1656
g61
I3
ssg62
g1650
sg55
(lp1657
S'0'
asbasbasbasbasbasbasbasbasbasbasbag48
(g64
g50
NtRp1658
(dp1659
g53
(dp1660
sg62
g58
sg55
(lp1661
g48
(g69
g50
NtRp1662
(dp1663
g53
(dp1664
g73
g74
ssg62
g1658
sg55
(lp1665
S'extension'
p1666
asbag48
(g69
g50
NtRp1667
(dp1668
g53
(dp1669
g80
g81
ssg62
g1658
sg55
(lp1670
S':'
asbag48
(g69
g50
NtRp1671
(dp1672
g53
(dp1673
sg62
g1658
sg55
(lp1674
g48
(g49
g50
NtRp1675
(dp1676
g53
(dp1677
g61
I5
ssg62
g1671
sg55
(lp1678
S'html'
p1679
asbasbasbag48
(g64
g50
NtRp1680
(dp1681
g53
(dp1682
sg62
g58
sg55
(lp1683
g48
(g69
g50
NtRp1684
(dp1685
g53
(dp1686
g73
g74
ssg62
g1680
sg55
(lp1687
S'folder'
p1688
asbag48
(g69
g50
NtRp1689
(dp1690
g53
(dp1691
g80
g81
ssg62
g1680
sg55
(lp1692
S':'
asbag48
(g69
g50
NtRp1693
(dp1694
g53
(dp1695
sg62
g1680
sg55
(lp1696
g48
(g49
g50
NtRp1697
(dp1698
g53
(dp1699
g61
I5
ssg62
g1693
sg55
(lp1700
S'C:\\Users\\Do It\\Desktop\\web2py_opine\\web2py\\applications\\openopine\\'
p1701
asbasbasbag48
(g64
g50
NtRp1702
(dp1703
g53
(dp1704
sg62
g58
sg55
(lp1705
g48
(g69
g50
NtRp1706
(dp1707
g53
(dp1708
g73
g74
ssg62
g1702
sg55
(lp1709
S'function'
p1710
asbag48
(g69
g50
NtRp1711
(dp1712
g53
(dp1713
g80
g81
ssg62
g1702
sg55
(lp1714
S':'
asbag48
(g69
g50
NtRp1715
(dp1716
g53
(dp1717
sg62
g1702
sg55
(lp1718
g48
(g49
g50
NtRp1719
(dp1720
g53
(dp1721
g61
I5
ssg62
g1715
sg55
(lp1722
S'index'
p1723
asbasbasbag48
(g64
g50
NtRp1724
(dp1725
g53
(dp1726
sg62
g58
sg55
(lp1727
g48
(g69
g50
NtRp1728
(dp1729
g53
(dp1730
g73
g74
ssg62
g1724
sg55
(lp1731
S'get_vars'
p1732
asbag48
(g69
g50
NtRp1733
(dp1734
g53
(dp1735
g80
g81
ssg62
g1724
sg55
(lp1736
S':'
asbag48
(g69
g50
NtRp1737
(dp1738
g53
(dp1739
sg62
g1724
sg55
(lp1740
g48
(g49
g50
NtRp1741
(dp1742
g53
(dp1743
g61
I5
ssg62
g1737
sg55
(lp1744
g48
(g57
g50
NtRp1745
(dp1746
g53
(dp1747
g61
I4
ssg62
Nsg55
(lp1748
sbasbasbasbag48
(g64
g50
NtRp1749
(dp1750
g53
(dp1751
sg62
g58
sg55
(lp1752
g48
(g69
g50
NtRp1753
(dp1754
g53
(dp1755
g73
g74
ssg62
g1749
sg55
(lp1756
S'global_settings'
p1757
asbag48
(g69
g50
NtRp1758
(dp1759
g53
(dp1760
g80
g81
ssg62
g1749
sg55
(lp1761
S':'
asbag48
(g69
g50
NtRp1762
(dp1763
g53
(dp1764
sg62
g1749
sg55
(lp1765
g48
(g49
g50
NtRp1766
(dp1767
g53
(dp1768
g61
I5
ssg62
g1762
sg55
(lp1769
g48
(g57
g50
NtRp1770
(dp1771
g53
(dp1772
g61
I4
ssg62
Nsg55
(lp1773
g48
(g64
g50
NtRp1774
(dp1775
g53
(dp1776
sg62
g1770
sg55
(lp1777
g48
(g69
g50
NtRp1778
(dp1779
g53
(dp1780
g73
g74
ssg62
g1774
sg55
(lp1781
g764
asbag48
(g69
g50
NtRp1782
(dp1783
g53
(dp1784
g80
g81
ssg62
g1774
sg55
(lp1785
S':'
asbag48
(g69
g50
NtRp1786
(dp1787
g53
(dp1788
sg62
g1774
sg55
(lp1789
g48
(g49
g50
NtRp1790
(dp1791
g53
(dp1792
g61
I4
ssg62
g1786
sg55
(lp1793
S"set(['C:\\\\Users\\\\Do It\\\\Desktop\\\\web2py_opine\\\\web2py\\\\applications\\\\init\\\\', 'C:\\\\Users\\\\Do It\\\\Desktop\\\\web2py_opine\\\\web2py\\\\applications\\\\admin\\\\', 'C:\\\\Users\\\\Do It\\\\Desktop\\\\web2py_opine\\\\web2py\\\\applications\\\\openopine\\\\'])"
p1794
asbasbasbag48
(g64
g50
NtRp1795
(dp1796
g53
(dp1797
sg62
g1770
sg55
(lp1798
g48
(g69
g50
NtRp1799
(dp1800
g53
(dp1801
g73
g74
ssg62
g1795
sg55
(lp1802
g786
asbag48
(g69
g50
NtRp1803
(dp1804
g53
(dp1805
g80
g81
ssg62
g1795
sg55
(lp1806
S':'
asbag48
(g69
g50
NtRp1807
(dp1808
g53
(dp1809
sg62
g1795
sg55
(lp1810
g48
(g49
g50
NtRp1811
(dp1812
g53
(dp1813
g61
I4
ssg62
g1807
sg55
(lp1814
g799
asbasbasbag48
(g64
g50
NtRp1815
(dp1816
g53
(dp1817
sg62
g1770
sg55
(lp1818
g48
(g69
g50
NtRp1819
(dp1820
g53
(dp1821
g73
g74
ssg62
g1815
sg55
(lp1822
g808
asbag48
(g69
g50
NtRp1823
(dp1824
g53
(dp1825
g80
g81
ssg62
g1815
sg55
(lp1826
S':'
asbag48
(g69
g50
NtRp1827
(dp1828
g53
(dp1829
sg62
g1815
sg55
(lp1830
g48
(g49
g50
NtRp1831
(dp1832
g53
(dp1833
g61
I4
ssg62
g1827
sg55
(lp1834
g48
(g57
g50
NtRp1835
(dp1836
g53
(dp1837
g61
I3
ssg62
Nsg55
(lp1838
sbasbasbasbag48
(g64
g50
NtRp1839
(dp1840
g53
(dp1841
sg62
g1770
sg55
(lp1842
g48
(g69
g50
NtRp1843
(dp1844
g53
(dp1845
g73
g74
ssg62
g1839
sg55
(lp1846
g833
asbag48
(g69
g50
NtRp1847
(dp1848
g53
(dp1849
g80
g81
ssg62
g1839
sg55
(lp1850
S':'
asbag48
(g69
g50
NtRp1851
(dp1852
g53
(dp1853
sg62
g1839
sg55
(lp1854
g48
(g49
g50
NtRp1855
(dp1856
g53
(dp1857
g61
I4
ssg62
g1851
sg55
(lp1858
S"<Values at 0x2b82260: {'verbose': False, 'ip': '127.0.0.1', 'shutdown_timeout': 5, 'taskbar': False, 'nocron': False, 'pid_filename': 'httpserver.pid', 'maxthreads': None, 'softcron': False, 'server_name': 'Double', 'bpython': False, 'nogui': False, 'port': 8000, 'extcron': False, 'debuglevel': 30, 'test': None, 'folder': 'C:\\\\Users\\\\Do It\\\\Desktop\\\\web2py_opine\\\\web2py', 'config': '', 'import_models': False, 'winservice': '', 'shell': None, 'run': '', 'log_filename': 'httpserver.log', 'args': [''], 'ssl_ca_certificate': None, 'scheduler': None, 'profiler_filename': None, 'ssl_private_key': '', 'password': '<ask>', 'request_queue_size': 5, 'ssl_certificate': '', 'cronjob': False, 'plain': False, 'quiet': False, 'interfaces': None, 'minthreads': None, 'timeout': 10, 'numthreads': None, 'nobanner': False}>"
p1859
asbasbasbag48
(g64
g50
NtRp1860
(dp1861
g53
(dp1862
sg62
g1770
sg55
(lp1863
g48
(g69
g50
NtRp1864
(dp1865
g53
(dp1866
g73
g74
ssg62
g1860
sg55
(lp1867
g855
asbag48
(g69
g50
NtRp1868
(dp1869
g53
(dp1870
g80
g81
ssg62
g1860
sg55
(lp1871
S':'
asbag48
(g69
g50
NtRp1872
(dp1873
g53
(dp1874
sg62
g1860
sg55
(lp1875
g48
(g49
g50
NtRp1876
(dp1877
g53
(dp1878
g61
I4
ssg62
g1872
sg55
(lp1879
S'set([])'
p1880
asbasbasbag48
(g64
g50
NtRp1881
(dp1882
g53
(dp1883
sg62
g1770
sg55
(lp1884
g48
(g69
g50
NtRp1885
(dp1886
g53
(dp1887
g73
g74
ssg62
g1881
sg55
(lp1888
g877
asbag48
(g69
g50
NtRp1889
(dp1890
g53
(dp1891
g80
g81
ssg62
g1881
sg55
(lp1892
S':'
asbag48
(g69
g50
NtRp1893
(dp1894
g53
(dp1895
sg62
g1881
sg55
(lp1896
g48
(g49
g50
NtRp1897
(dp1898
g53
(dp1899
g61
I4
ssg62
g1893
sg55
(lp1900
g91
asbasbasbag48
(g64
g50
NtRp1901
(dp1902
g53
(dp1903
sg62
g1770
sg55
(lp1904
g48
(g69
g50
NtRp1905
(dp1906
g53
(dp1907
g73
g74
ssg62
g1901
sg55
(lp1908
g898
asbag48
(g69
g50
NtRp1909
(dp1910
g53
(dp1911
g80
g81
ssg62
g1901
sg55
(lp1912
S':'
asbag48
(g69
g50
NtRp1913
(dp1914
g53
(dp1915
sg62
g1901
sg55
(lp1916
g48
(g49
g50
NtRp1917
(dp1918
g53
(dp1919
g61
I4
ssg62
g1913
sg55
(lp1920
g911
asbasbasbag48
(g64
g50
NtRp1921
(dp1922
g53
(dp1923
sg62
g1770
sg55
(lp1924
g48
(g69
g50
NtRp1925
(dp1926
g53
(dp1927
g73
g74
ssg62
g1921
sg55
(lp1928
g1096
asbag48
(g69
g50
NtRp1929
(dp1930
g53
(dp1931
g80
g81
ssg62
g1921
sg55
(lp1932
S':'
asbag48
(g69
g50
NtRp1933
(dp1934
g53
(dp1935
sg62
g1921
sg55
(lp1936
g48
(g49
g50
NtRp1937
(dp1938
g53
(dp1939
g61
I4
ssg62
g1933
sg55
(lp1940
g91
asbasbasbag48
(g64
g50
NtRp1941
(dp1942
g53
(dp1943
sg62
g1770
sg55
(lp1944
g48
(g69
g50
NtRp1945
(dp1946
g53
(dp1947
g73
g74
ssg62
g1941
sg55
(lp1948
g1334
asbag48
(g69
g50
NtRp1949
(dp1950
g53
(dp1951
g80
g81
ssg62
g1941
sg55
(lp1952
S':'
asbag48
(g69
g50
NtRp1953
(dp1954
g53
(dp1955
sg62
g1941
sg55
(lp1956
g48
(g49
g50
NtRp1957
(dp1958
g53
(dp1959
g61
I4
ssg62
g1953
sg55
(lp1960
g1347
asbasbasbag48
(g64
g50
NtRp1961
(dp1962
g53
(dp1963
sg62
g1770
sg55
(lp1964
g48
(g69
g50
NtRp1965
(dp1966
g53
(dp1967
g73
g74
ssg62
g1961
sg55
(lp1968
g1377
asbag48
(g69
g50
NtRp1969
(dp1970
g53
(dp1971
g80
g81
ssg62
g1961
sg55
(lp1972
S':'
asbag48
(g69
g50
NtRp1973
(dp1974
g53
(dp1975
sg62
g1961
sg55
(lp1976
g48
(g49
g50
NtRp1977
(dp1978
g53
(dp1979
g61
I4
ssg62
g1973
sg55
(lp1980
g48
(g57
g50
NtRp1981
(dp1982
g53
(dp1983
g61
I3
ssg62
Nsg55
(lp1984
g48
(g64
g50
NtRp1985
(dp1986
g53
(dp1987
sg62
g1981
sg55
(lp1988
g48
(g69
g50
NtRp1989
(dp1990
g53
(dp1991
sg62
g1985
sg55
(lp1992
g48
(g49
g50
NtRp1993
(dp1994
g53
(dp1995
g61
I3
ssg62
g1989
sg55
(lp1996
S'1'
asbasbasbag48
(g64
g50
NtRp1997
(dp1998
g53
(dp1999
sg62
g1981
sg55
(lp2000
g48
(g69
g50
NtRp2001
(dp2002
g53
(dp2003
sg62
g1997
sg55
(lp2004
g48
(g49
g50
NtRp2005
(dp2006
g53
(dp2007
g61
I3
ssg62
g2001
sg55
(lp2008
S'99'
p2009
asbasbasbag48
(g64
g50
NtRp2010
(dp2011
g53
(dp2012
sg62
g1981
sg55
(lp2013
g48
(g69
g50
NtRp2014
(dp2015
g53
(dp2016
sg62
g2010
sg55
(lp2017
g48
(g49
g50
NtRp2018
(dp2019
g53
(dp2020
g61
I3
ssg62
g2014
sg55
(lp2021
S'2'
asbasbasbag48
(g64
g50
NtRp2022
(dp2023
g53
(dp2024
sg62
g1981
sg55
(lp2025
g48
(g69
g50
NtRp2026
(dp2027
g53
(dp2028
sg62
g2022
sg55
(lp2029
g48
(g49
g50
NtRp2030
(dp2031
g53
(dp2032
g61
I3
ssg62
g2026
sg55
(lp2033
S'datetime.datetime(2011, 9, 26, 6, 55, 33)'
p2034
asbasbasbag48
(g64
g50
NtRp2035
(dp2036
g53
(dp2037
sg62
g1981
sg55
(lp2038
g48
(g69
g50
NtRp2039
(dp2040
g53
(dp2041
sg62
g2035
sg55
(lp2042
g48
(g49
g50
NtRp2043
(dp2044
g53
(dp2045
g61
I3
ssg62
g2039
sg55
(lp2046
g1456
asbasbasbasbasbasbasbasbasbasbasbag48
(g64
g50
NtRp2047
(dp2048
g53
(dp2049
sg62
g58
sg55
(lp2050
g48
(g69
g50
NtRp2051
(dp2052
g53
(dp2053
g73
g74
ssg62
g2047
sg55
(lp2054
S'is_https'
p2055
asbag48
(g69
g50
NtRp2056
(dp2057
g53
(dp2058
g80
g81
ssg62
g2047
sg55
(lp2059
S':'
asbag48
(g69
g50
NtRp2060
(dp2061
g53
(dp2062
sg62
g2047
sg55
(lp2063
g48
(g49
g50
NtRp2064
(dp2065
g53
(dp2066
g61
I5
ssg62
g2060
sg55
(lp2067
g91
asbasbasbag48
(g64
g50
NtRp2068
(dp2069
g53
(dp2070
sg62
g58
sg55
(lp2071
g48
(g69
g50
NtRp2072
(dp2073
g53
(dp2074
g73
g74
ssg62
g2068
sg55
(lp2075
S'is_local'
p2076
asbag48
(g69
g50
NtRp2077
(dp2078
g53
(dp2079
g80
g81
ssg62
g2068
sg55
(lp2080
S':'
asbag48
(g69
g50
NtRp2081
(dp2082
g53
(dp2083
sg62
g2068
sg55
(lp2084
g48
(g49
g50
NtRp2085
(dp2086
g53
(dp2087
g61
I5
ssg62
g2081
sg55
(lp2088
g1565
asbasbasbag48
(g64
g50
NtRp2089
(dp2090
g53
(dp2091
sg62
g58
sg55
(lp2092
g48
(g69
g50
NtRp2093
(dp2094
g53
(dp2095
g73
g74
ssg62
g2089
sg55
(lp2096
S'is_restful'
p2097
asbag48
(g69
g50
NtRp2098
(dp2099
g53
(dp2100
g80
g81
ssg62
g2089
sg55
(lp2101
S':'
asbag48
(g69
g50
NtRp2102
(dp2103
g53
(dp2104
sg62
g2089
sg55
(lp2105
g48
(g49
g50
NtRp2106
(dp2107
g53
(dp2108
g61
I5
ssg62
g2102
sg55
(lp2109
g91
asbasbasbag48
(g64
g50
NtRp2110
(dp2111
g53
(dp2112
sg62
g58
sg55
(lp2113
g48
(g69
g50
NtRp2114
(dp2115
g53
(dp2116
g73
g74
ssg62
g2110
sg55
(lp2117
S'now'
p2118
asbag48
(g69
g50
NtRp2119
(dp2120
g53
(dp2121
g80
g81
ssg62
g2110
sg55
(lp2122
S':'
asbag48
(g69
g50
NtRp2123
(dp2124
g53
(dp2125
sg62
g2110
sg55
(lp2126
g48
(g49
g50
NtRp2127
(dp2128
g53
(dp2129
g61
I5
ssg62
g2123
sg55
(lp2130
S'datetime.datetime(2011, 11, 21, 9, 49, 48, 867000)'
p2131
asbasbasbag48
(g64
g50
NtRp2132
(dp2133
g53
(dp2134
sg62
g58
sg55
(lp2135
g48
(g69
g50
NtRp2136
(dp2137
g53
(dp2138
g73
g74
ssg62
g2132
sg55
(lp2139
S'post_vars'
p2140
asbag48
(g69
g50
NtRp2141
(dp2142
g53
(dp2143
g80
g81
ssg62
g2132
sg55
(lp2144
S':'
asbag48
(g69
g50
NtRp2145
(dp2146
g53
(dp2147
sg62
g2132
sg55
(lp2148
g48
(g49
g50
NtRp2149
(dp2150
g53
(dp2151
g61
I5
ssg62
g2145
sg55
(lp2152
g48
(g57
g50
NtRp2153
(dp2154
g53
(dp2155
g61
I4
ssg62
Nsg55
(lp2156
sbasbasbasbag48
(g64
g50
NtRp2157
(dp2158
g53
(dp2159
sg62
g58
sg55
(lp2160
g48
(g69
g50
NtRp2161
(dp2162
g53
(dp2163
g73
g74
ssg62
g2157
sg55
(lp2164
S'url'
p2165
asbag48
(g69
g50
NtRp2166
(dp2167
g53
(dp2168
g80
g81
ssg62
g2157
sg55
(lp2169
S':'
asbag48
(g69
g50
NtRp2170
(dp2171
g53
(dp2172
sg62
g2157
sg55
(lp2173
g48
(g49
g50
NtRp2174
(dp2175
g53
(dp2176
g61
I5
ssg62
g2170
sg55
(lp2177
S'/openopine/default/index'
p2178
asbasbasbag48
(g64
g50
NtRp2179
(dp2180
g53
(dp2181
sg62
g58
sg55
(lp2182
g48
(g69
g50
NtRp2183
(dp2184
g53
(dp2185
g73
g74
ssg62
g2179
sg55
(lp2186
S'utcnow'
p2187
asbag48
(g69
g50
NtRp2188
(dp2189
g53
(dp2190
g80
g81
ssg62
g2179
sg55
(lp2191
S':'
asbag48
(g69
g50
NtRp2192
(dp2193
g53
(dp2194
sg62
g2179
sg55
(lp2195
g48
(g49
g50
NtRp2196
(dp2197
g53
(dp2198
g61
I5
ssg62
g2192
sg55
(lp2199
S'datetime.datetime(2011, 11, 21, 8, 49, 48, 867000)'
p2200
asbasbasbag48
(g64
g50
NtRp2201
(dp2202
g53
(dp2203
sg62
g58
sg55
(lp2204
g48
(g69
g50
NtRp2205
(dp2206
g53
(dp2207
g73
g74
ssg62
g2201
sg55
(lp2208
S'uuid'
p2209
asbag48
(g69
g50
NtRp2210
(dp2211
g53
(dp2212
g80
g81
ssg62
g2201
sg55
(lp2213
S':'
asbag48
(g69
g50
NtRp2214
(dp2215
g53
(dp2216
sg62
g2201
sg55
(lp2217
g48
(g49
g50
NtRp2218
(dp2219
g53
(dp2220
g61
I5
ssg62
g2214
sg55
(lp2221
S'openopine/127.0.0.1.2011-11-21.09-49-48.6c7df61e-4882-4c67-bc4a-7961f0db1852'
p2222
asbasbasbag48
(g64
g50
NtRp2223
(dp2224
g53
(dp2225
sg62
g58
sg55
(lp2226
g48
(g69
g50
NtRp2227
(dp2228
g53
(dp2229
g73
g74
ssg62
g2223
sg55
(lp2230
S'vars'
p2231
asbag48
(g69
g50
NtRp2232
(dp2233
g53
(dp2234
g80
g81
ssg62
g2223
sg55
(lp2235
S':'
asbag48
(g69
g50
NtRp2236
(dp2237
g53
(dp2238
sg62
g2223
sg55
(lp2239
g48
(g49
g50
NtRp2240
(dp2241
g53
(dp2242
g61
I5
ssg62
g2236
sg55
(lp2243
g48
(g57
g50
NtRp2244
(dp2245
g53
(dp2246
g61
I4
ssg62
Nsg55
(lp2247
sbasbasbasbag48
(g64
g50
NtRp2248
(dp2249
g53
(dp2250
sg62
g58
sg55
(lp2251
g48
(g69
g50
NtRp2252
(dp2253
g53
(dp2254
g73
g74
ssg62
g2248
sg55
(lp2255
S'wsgi'
p2256
asbag48
(g69
g50
NtRp2257
(dp2258
g53
(dp2259
g80
g81
ssg62
g2248
sg55
(lp2260
S':'
asbag48
(g69
g50
NtRp2261
(dp2262
g53
(dp2263
sg62
g2248
sg55
(lp2264
g48
(g49
g50
NtRp2265
(dp2266
g53
(dp2267
g61
I5
ssg62
g2261
sg55
(lp2268
g48
(g57
g50
NtRp2269
(dp2270
g53
(dp2271
g61
I4
ssg62
Nsg55
(lp2272
g48
(g64
g50
NtRp2273
(dp2274
g53
(dp2275
sg62
g2269
sg55
(lp2276
g48
(g69
g50
NtRp2277
(dp2278
g53
(dp2279
g73
g74
ssg62
g2273
sg55
(lp2280
S'environ'
p2281
asbag48
(g69
g50
NtRp2282
(dp2283
g53
(dp2284
g80
g81
ssg62
g2273
sg55
(lp2285
S':'
asbag48
(g69
g50
NtRp2286
(dp2287
g53
(dp2288
sg62
g2273
sg55
(lp2289
g48
(g49
g50
NtRp2290
(dp2291
g53
(dp2292
g61
I4
ssg62
g2286
sg55
(lp2293
g48
(g57
g50
NtRp2294
(dp2295
g53
(dp2296
g61
I3
ssg62
Nsg55
(lp2297
g48
(g64
g50
NtRp2298
(dp2299
g53
(dp2300
sg62
g2294
sg55
(lp2301
g48
(g69
g50
NtRp2302
(dp2303
g53
(dp2304
g73
g74
ssg62
g2298
sg55
(lp2305
S'HTTP_ACCEPT'
p2306
asbag48
(g69
g50
NtRp2307
(dp2308
g53
(dp2309
g80
g81
ssg62
g2298
sg55
(lp2310
S':'
asbag48
(g69
g50
NtRp2311
(dp2312
g53
(dp2313
sg62
g2298
sg55
(lp2314
g48
(g49
g50
NtRp2315
(dp2316
g53
(dp2317
g61
I3
ssg62
g2311
sg55
(lp2318
g933
asbasbasbag48
(g64
g50
NtRp2319
(dp2320
g53
(dp2321
sg62
g2294
sg55
(lp2322
g48
(g69
g50
NtRp2323
(dp2324
g53
(dp2325
g73
g74
ssg62
g2319
sg55
(lp2326
S'HTTP_ACCEPT_CHARSET'
p2327
asbag48
(g69
g50
NtRp2328
(dp2329
g53
(dp2330
g80
g81
ssg62
g2319
sg55
(lp2331
S':'
asbag48
(g69
g50
NtRp2332
(dp2333
g53
(dp2334
sg62
g2319
sg55
(lp2335
g48
(g49
g50
NtRp2336
(dp2337
g53
(dp2338
g61
I3
ssg62
g2332
sg55
(lp2339
g955
asbasbasbag48
(g64
g50
NtRp2340
(dp2341
g53
(dp2342
sg62
g2294
sg55
(lp2343
g48
(g69
g50
NtRp2344
(dp2345
g53
(dp2346
g73
g74
ssg62
g2340
sg55
(lp2347
S'HTTP_ACCEPT_ENCODING'
p2348
asbag48
(g69
g50
NtRp2349
(dp2350
g53
(dp2351
g80
g81
ssg62
g2340
sg55
(lp2352
S':'
asbag48
(g69
g50
NtRp2353
(dp2354
g53
(dp2355
sg62
g2340
sg55
(lp2356
g48
(g49
g50
NtRp2357
(dp2358
g53
(dp2359
g61
I3
ssg62
g2353
sg55
(lp2360
g977
asbasbasbag48
(g64
g50
NtRp2361
(dp2362
g53
(dp2363
sg62
g2294
sg55
(lp2364
g48
(g69
g50
NtRp2365
(dp2366
g53
(dp2367
g73
g74
ssg62
g2361
sg55
(lp2368
S'HTTP_ACCEPT_LANGUAGE'
p2369
asbag48
(g69
g50
NtRp2370
(dp2371
g53
(dp2372
g80
g81
ssg62
g2361
sg55
(lp2373
S':'
asbag48
(g69
g50
NtRp2374
(dp2375
g53
(dp2376
sg62
g2361
sg55
(lp2377
g48
(g49
g50
NtRp2378
(dp2379
g53
(dp2380
g61
I3
ssg62
g2374
sg55
(lp2381
g999
asbasbasbag48
(g64
g50
NtRp2382
(dp2383
g53
(dp2384
sg62
g2294
sg55
(lp2385
g48
(g69
g50
NtRp2386
(dp2387
g53
(dp2388
g73
g74
ssg62
g2382
sg55
(lp2389
S'HTTP_CONNECTION'
p2390
asbag48
(g69
g50
NtRp2391
(dp2392
g53
(dp2393
g80
g81
ssg62
g2382
sg55
(lp2394
S':'
asbag48
(g69
g50
NtRp2395
(dp2396
g53
(dp2397
sg62
g2382
sg55
(lp2398
g48
(g49
g50
NtRp2399
(dp2400
g53
(dp2401
g61
I3
ssg62
g2395
sg55
(lp2402
g1021
asbasbasbag48
(g64
g50
NtRp2403
(dp2404
g53
(dp2405
sg62
g2294
sg55
(lp2406
g48
(g69
g50
NtRp2407
(dp2408
g53
(dp2409
g73
g74
ssg62
g2403
sg55
(lp2410
S'HTTP_COOKIE'
p2411
asbag48
(g69
g50
NtRp2412
(dp2413
g53
(dp2414
g80
g81
ssg62
g2403
sg55
(lp2415
S':'
asbag48
(g69
g50
NtRp2416
(dp2417
g53
(dp2418
sg62
g2403
sg55
(lp2419
g48
(g49
g50
NtRp2420
(dp2421
g53
(dp2422
g61
I3
ssg62
g2416
sg55
(lp2423
g1043
asbasbasbag48
(g64
g50
NtRp2424
(dp2425
g53
(dp2426
sg62
g2294
sg55
(lp2427
g48
(g69
g50
NtRp2428
(dp2429
g53
(dp2430
g73
g74
ssg62
g2424
sg55
(lp2431
S'HTTP_HOST'
p2432
asbag48
(g69
g50
NtRp2433
(dp2434
g53
(dp2435
g80
g81
ssg62
g2424
sg55
(lp2436
S':'
asbag48
(g69
g50
NtRp2437
(dp2438
g53
(dp2439
sg62
g2424
sg55
(lp2440
g48
(g49
g50
NtRp2441
(dp2442
g53
(dp2443
g61
I3
ssg62
g2437
sg55
(lp2444
g1065
asbasbasbag48
(g64
g50
NtRp2445
(dp2446
g53
(dp2447
sg62
g2294
sg55
(lp2448
g48
(g69
g50
NtRp2449
(dp2450
g53
(dp2451
g73
g74
ssg62
g2445
sg55
(lp2452
S'HTTP_USER_AGENT'
p2453
asbag48
(g69
g50
NtRp2454
(dp2455
g53
(dp2456
g80
g81
ssg62
g2445
sg55
(lp2457
S':'
asbag48
(g69
g50
NtRp2458
(dp2459
g53
(dp2460
sg62
g2445
sg55
(lp2461
g48
(g49
g50
NtRp2462
(dp2463
g53
(dp2464
g61
I3
ssg62
g2458
sg55
(lp2465
g1087
asbasbasbag48
(g64
g50
NtRp2466
(dp2467
g53
(dp2468
sg62
g2294
sg55
(lp2469
g48
(g69
g50
NtRp2470
(dp2471
g53
(dp2472
g73
g74
ssg62
g2466
sg55
(lp2473
S'PATH_INFO'
p2474
asbag48
(g69
g50
NtRp2475
(dp2476
g53
(dp2477
g80
g81
ssg62
g2466
sg55
(lp2478
S':'
asbag48
(g69
g50
NtRp2479
(dp2480
g53
(dp2481
sg62
g2466
sg55
(lp2482
g48
(g49
g50
NtRp2483
(dp2484
g53
(dp2485
g61
I3
ssg62
g2479
sg55
(lp2486
g1130
asbasbasbag48
(g64
g50
NtRp2487
(dp2488
g53
(dp2489
sg62
g2294
sg55
(lp2490
g48
(g69
g50
NtRp2491
(dp2492
g53
(dp2493
g73
g74
ssg62
g2487
sg55
(lp2494
S'QUERY_STRING'
p2495
asbag48
(g69
g50
NtRp2496
(dp2497
g53
(dp2498
g80
g81
ssg62
g2487
sg55
(lp2499
S':'
asbag48
(g69
g50
NtRp2500
(dp2501
g53
(dp2502
sg62
g2487
sg55
(lp2503
g48
(g49
g50
NtRp2504
(dp2505
g53
(dp2506
g61
I3
ssg62
g2500
sg55
(lp2507
S''
asbasbasbag48
(g64
g50
NtRp2508
(dp2509
g53
(dp2510
sg62
g2294
sg55
(lp2511
g48
(g69
g50
NtRp2512
(dp2513
g53
(dp2514
g73
g74
ssg62
g2508
sg55
(lp2515
S'REMOTE_ADDR'
p2516
asbag48
(g69
g50
NtRp2517
(dp2518
g53
(dp2519
g80
g81
ssg62
g2508
sg55
(lp2520
S':'
asbag48
(g69
g50
NtRp2521
(dp2522
g53
(dp2523
sg62
g2508
sg55
(lp2524
g48
(g49
g50
NtRp2525
(dp2526
g53
(dp2527
g61
I3
ssg62
g2521
sg55
(lp2528
g181
asbasbasbag48
(g64
g50
NtRp2529
(dp2530
g53
(dp2531
sg62
g2294
sg55
(lp2532
g48
(g69
g50
NtRp2533
(dp2534
g53
(dp2535
g73
g74
ssg62
g2529
sg55
(lp2536
S'REMOTE_PORT'
p2537
asbag48
(g69
g50
NtRp2538
(dp2539
g53
(dp2540
g80
g81
ssg62
g2529
sg55
(lp2541
S':'
asbag48
(g69
g50
NtRp2542
(dp2543
g53
(dp2544
sg62
g2529
sg55
(lp2545
g48
(g49
g50
NtRp2546
(dp2547
g53
(dp2548
g61
I3
ssg62
g2542
sg55
(lp2549
g1194
asbasbasbag48
(g64
g50
NtRp2550
(dp2551
g53
(dp2552
sg62
g2294
sg55
(lp2553
g48
(g69
g50
NtRp2554
(dp2555
g53
(dp2556
g73
g74
ssg62
g2550
sg55
(lp2557
S'REQUEST_METHOD'
p2558
asbag48
(g69
g50
NtRp2559
(dp2560
g53
(dp2561
g80
g81
ssg62
g2550
sg55
(lp2562
S':'
asbag48
(g69
g50
NtRp2563
(dp2564
g53
(dp2565
sg62
g2550
sg55
(lp2566
g48
(g49
g50
NtRp2567
(dp2568
g53
(dp2569
g61
I3
ssg62
g2563
sg55
(lp2570
g1216
asbasbasbag48
(g64
g50
NtRp2571
(dp2572
g53
(dp2573
sg62
g2294
sg55
(lp2574
g48
(g69
g50
NtRp2575
(dp2576
g53
(dp2577
g73
g74
ssg62
g2571
sg55
(lp2578
S'SCRIPT_NAME'
p2579
asbag48
(g69
g50
NtRp2580
(dp2581
g53
(dp2582
g80
g81
ssg62
g2571
sg55
(lp2583
S':'
asbag48
(g69
g50
NtRp2584
(dp2585
g53
(dp2586
sg62
g2571
sg55
(lp2587
g48
(g49
g50
NtRp2588
(dp2589
g53
(dp2590
g61
I3
ssg62
g2584
sg55
(lp2591
S''
asbasbasbag48
(g64
g50
NtRp2592
(dp2593
g53
(dp2594
sg62
g2294
sg55
(lp2595
g48
(g69
g50
NtRp2596
(dp2597
g53
(dp2598
g73
g74
ssg62
g2592
sg55
(lp2599
S'SERVER_NAME'
p2600
asbag48
(g69
g50
NtRp2601
(dp2602
g53
(dp2603
g80
g81
ssg62
g2592
sg55
(lp2604
S':'
asbag48
(g69
g50
NtRp2605
(dp2606
g53
(dp2607
sg62
g2592
sg55
(lp2608
g48
(g49
g50
NtRp2609
(dp2610
g53
(dp2611
g61
I3
ssg62
g2605
sg55
(lp2612
g1259
asbasbasbag48
(g64
g50
NtRp2613
(dp2614
g53
(dp2615
sg62
g2294
sg55
(lp2616
g48
(g69
g50
NtRp2617
(dp2618
g53
(dp2619
g73
g74
ssg62
g2613
sg55
(lp2620
S'SERVER_PORT'
p2621
asbag48
(g69
g50
NtRp2622
(dp2623
g53
(dp2624
g80
g81
ssg62
g2613
sg55
(lp2625
S':'
asbag48
(g69
g50
NtRp2626
(dp2627
g53
(dp2628
sg62
g2613
sg55
(lp2629
g48
(g49
g50
NtRp2630
(dp2631
g53
(dp2632
g61
I3
ssg62
g2626
sg55
(lp2633
g1281
asbasbasbag48
(g64
g50
NtRp2634
(dp2635
g53
(dp2636
sg62
g2294
sg55
(lp2637
g48
(g69
g50
NtRp2638
(dp2639
g53
(dp2640
g73
g74
ssg62
g2634
sg55
(lp2641
S'SERVER_PROTOCOL'
p2642
asbag48
(g69
g50
NtRp2643
(dp2644
g53
(dp2645
g80
g81
ssg62
g2634
sg55
(lp2646
S':'
asbag48
(g69
g50
NtRp2647
(dp2648
g53
(dp2649
sg62
g2634
sg55
(lp2650
g48
(g49
g50
NtRp2651
(dp2652
g53
(dp2653
g61
I3
ssg62
g2647
sg55
(lp2654
g1303
asbasbasbag48
(g64
g50
NtRp2655
(dp2656
g53
(dp2657
sg62
g2294
sg55
(lp2658
g48
(g69
g50
NtRp2659
(dp2660
g53
(dp2661
g73
g74
ssg62
g2655
sg55
(lp2662
S'SERVER_SOFTWARE'
p2663
asbag48
(g69
g50
NtRp2664
(dp2665
g53
(dp2666
g80
g81
ssg62
g2655
sg55
(lp2667
S':'
asbag48
(g69
g50
NtRp2668
(dp2669
g53
(dp2670
sg62
g2655
sg55
(lp2671
g48
(g49
g50
NtRp2672
(dp2673
g53
(dp2674
g61
I3
ssg62
g2668
sg55
(lp2675
g1325
asbasbasbag48
(g64
g50
NtRp2676
(dp2677
g53
(dp2678
sg62
g2294
sg55
(lp2679
g48
(g69
g50
NtRp2680
(dp2681
g53
(dp2682
g73
g74
ssg62
g2676
sg55
(lp2683
S'wsgi.errors'
p2684
asbag48
(g69
g50
NtRp2685
(dp2686
g53
(dp2687
g80
g81
ssg62
g2676
sg55
(lp2688
S':'
asbag48
(g69
g50
NtRp2689
(dp2690
g53
(dp2691
sg62
g2676
sg55
(lp2692
g48
(g49
g50
NtRp2693
(dp2694
g53
(dp2695
g61
I3
ssg62
g2689
sg55
(lp2696
S"<open file '<stderr>', mode 'w' at 0x01CD00B0>"
p2697
asbasbasbag48
(g64
g50
NtRp2698
(dp2699
g53
(dp2700
sg62
g2294
sg55
(lp2701
g48
(g69
g50
NtRp2702
(dp2703
g53
(dp2704
g73
g74
ssg62
g2698
sg55
(lp2705
S'wsgi.file_wrapper'
p2706
asbag48
(g69
g50
NtRp2707
(dp2708
g53
(dp2709
g80
g81
ssg62
g2698
sg55
(lp2710
S':'
asbag48
(g69
g50
NtRp2711
(dp2712
g53
(dp2713
sg62
g2698
sg55
(lp2714
g48
(g49
g50
NtRp2715
(dp2716
g53
(dp2717
g61
I3
ssg62
g2711
sg55
(lp2718
S'<class wsgiref.util.FileWrapper at 0x02AAAC30>'
p2719
asbasbasbag48
(g64
g50
NtRp2720
(dp2721
g53
(dp2722
sg62
g2294
sg55
(lp2723
g48
(g69
g50
NtRp2724
(dp2725
g53
(dp2726
g73
g74
ssg62
g2720
sg55
(lp2727
S'wsgi.input'
p2728
asbag48
(g69
g50
NtRp2729
(dp2730
g53
(dp2731
g80
g81
ssg62
g2720
sg55
(lp2732
S':'
asbag48
(g69
g50
NtRp2733
(dp2734
g53
(dp2735
sg62
g2720
sg55
(lp2736
g48
(g49
g50
NtRp2737
(dp2738
g53
(dp2739
g61
I3
ssg62
g2733
sg55
(lp2740
S'<cStringIO.StringO object at 0x032544E0>'
p2741
asbasbasbag48
(g64
g50
NtRp2742
(dp2743
g53
(dp2744
sg62
g2294
sg55
(lp2745
g48
(g69
g50
NtRp2746
(dp2747
g53
(dp2748
g73
g74
ssg62
g2742
sg55
(lp2749
S'wsgi.multiprocess'
p2750
asbag48
(g69
g50
NtRp2751
(dp2752
g53
(dp2753
g80
g81
ssg62
g2742
sg55
(lp2754
S':'
asbag48
(g69
g50
NtRp2755
(dp2756
g53
(dp2757
sg62
g2742
sg55
(lp2758
g48
(g49
g50
NtRp2759
(dp2760
g53
(dp2761
g61
I3
ssg62
g2755
sg55
(lp2762
g91
asbasbasbag48
(g64
g50
NtRp2763
(dp2764
g53
(dp2765
sg62
g2294
sg55
(lp2766
g48
(g69
g50
NtRp2767
(dp2768
g53
(dp2769
g73
g74
ssg62
g2763
sg55
(lp2770
S'wsgi.multithread'
p2771
asbag48
(g69
g50
NtRp2772
(dp2773
g53
(dp2774
g80
g81
ssg62
g2763
sg55
(lp2775
S':'
asbag48
(g69
g50
NtRp2776
(dp2777
g53
(dp2778
sg62
g2763
sg55
(lp2779
g48
(g49
g50
NtRp2780
(dp2781
g53
(dp2782
g61
I3
ssg62
g2776
sg55
(lp2783
g1565
asbasbasbag48
(g64
g50
NtRp2784
(dp2785
g53
(dp2786
sg62
g2294
sg55
(lp2787
g48
(g69
g50
NtRp2788
(dp2789
g53
(dp2790
g73
g74
ssg62
g2784
sg55
(lp2791
S'wsgi.run_once'
p2792
asbag48
(g69
g50
NtRp2793
(dp2794
g53
(dp2795
g80
g81
ssg62
g2784
sg55
(lp2796
S':'
asbag48
(g69
g50
NtRp2797
(dp2798
g53
(dp2799
sg62
g2784
sg55
(lp2800
g48
(g49
g50
NtRp2801
(dp2802
g53
(dp2803
g61
I3
ssg62
g2797
sg55
(lp2804
g91
asbasbasbag48
(g64
g50
NtRp2805
(dp2806
g53
(dp2807
sg62
g2294
sg55
(lp2808
g48
(g69
g50
NtRp2809
(dp2810
g53
(dp2811
g73
g74
ssg62
g2805
sg55
(lp2812
S'wsgi.url_scheme'
p2813
asbag48
(g69
g50
NtRp2814
(dp2815
g53
(dp2816
g80
g81
ssg62
g2805
sg55
(lp2817
S':'
asbag48
(g69
g50
NtRp2818
(dp2819
g53
(dp2820
sg62
g2805
sg55
(lp2821
g48
(g49
g50
NtRp2822
(dp2823
g53
(dp2824
g61
I3
ssg62
g2818
sg55
(lp2825
g1608
asbasbasbag48
(g64
g50
NtRp2826
(dp2827
g53
(dp2828
sg62
g2294
sg55
(lp2829
g48
(g69
g50
NtRp2830
(dp2831
g53
(dp2832
g73
g74
ssg62
g2826
sg55
(lp2833
S'wsgi.version'
p2834
asbag48
(g69
g50
NtRp2835
(dp2836
g53
(dp2837
g80
g81
ssg62
g2826
sg55
(lp2838
S':'
asbag48
(g69
g50
NtRp2839
(dp2840
g53
(dp2841
sg62
g2826
sg55
(lp2842
g48
(g49
g50
NtRp2843
(dp2844
g53
(dp2845
g61
I3
ssg62
g2839
sg55
(lp2846
S'1'
asbasbasbasbasbasbasbasbasbasbasbasbasbsS'frames'
p2847
(lp2848
(dp2849
S'file'
p2850
S'C:\\Users\\Do It\\Desktop\\web2py_opine\\web2py\\gluon\\restricted.py'
p2851
sS'dump'
p2852
(dp2853
S'environment'
p2854
S"{'A': <class 'gluon.html.A'>, 'Auth': <class 'gluon.tools.Auth'>, 'B': <class 'gluon.html.B'>, 'BEAUTIFY': <class 'gluon.html.BEAUTIFY'>, 'BODY': <class 'gluon.html.BODY'>, 'BR': <class 'gluon.html.BR'>, 'BUTTON': <class 'gluon.html.BUTTON'>, 'CAT': <class 'gluon.html.CAT'>, 'CENTER': <class 'gluon.html.CENTER'>, 'CLEANUP': <class 'gluon.validators.CLEANUP'>, ...}"
p2855
sS'ccode'
p2856
S'<code object <module> at 0327F458, file "C:\\User...2py\\applications\\openopine\\models\\db.py", line 8>'
p2857
ssS'lnum'
p2858
I194
sS'lines'
p2859
(dp2860
I192
S'        else:'
p2861
sI193
S'            ccode = compile2(code,layer)'
p2862
sI194
S'        exec ccode in environment'
p2863
sI195
S'    except HTTP:'
p2864
sI196
S'        raise'
p2865
sI197
S'    except Exception, error:'
p2866
sI198
S'        # XXX Show exception in Wing IDE if running in debugger'
p2867
sI189
S'    try:'
p2868
sI190
S'        if type(code) == types.CodeType:'
p2869
sI191
S'            ccode = code'
p2870
ssS'call'
p2871
S"(code='# -*- coding: utf-8 -*-\\n\\n#######################...                 readable=False,writable=False))\\n', environment={'A': <class 'gluon.html.A'>, 'Auth': <class 'gluon.tools.Auth'>, 'B': <class 'gluon.html.B'>, 'BEAUTIFY': <class 'gluon.html.BEAUTIFY'>, 'BODY': <class 'gluon.html.BODY'>, 'BR': <class 'gluon.html.BR'>, 'BUTTON': <class 'gluon.html.BUTTON'>, 'CAT': <class 'gluon.html.CAT'>, 'CENTER': <class 'gluon.html.CENTER'>, 'CLEANUP': <class 'gluon.validators.CLEANUP'>, ...}, layer=r'C:\\Users\\Do It\\Desktop\\web2py_opine\\web2py\\applications\\openopine\\models\\db.py')"
p2872
sS'func'
p2873
S'restricted'
p2874
sa(dp2875
g2850
S'C:\\Users\\Do It\\Desktop\\web2py_opine\\web2py\\applications\\openopine\\models\\db.py'
p2876
sg2852
(dp2877
S'RatingWidget'
p2878
S'undefined'
p2879
sS'OptionsWidget'
p2880
S'<function widget at 0x029D3F30>'
p2881
ssg2858
I125
sg2859
(dp2882
I128
S'        attr = OptionsWidget._attributes(field, {}, **attributes)'
p2883
sI129
S''
sI120
S"                Field('cost', 'string', length=200,requires=IS_LENGTH(200,2)),"
p2884
sI121
S"                Field('about', 'text'))"
p2885
sI122
S''
sI123
S'OptionsWidget = SQLFORM.widgets.options.widget'
p2886
sI124
S''
sI125
S'class RatingWidget(OptionsWidget):'
p2887
sI126
S'    @staticmethod'
p2888
sI127
S'    def widget(field, value, **attributes):'
p2889
ssg2871
S'()'
p2890
sg2873
S'<module>'
p2891
sasS'pyver'
p2892
S'Python 2.5.4: C:\\Python25\\python.exe'
p2893
sS'session'
p2894
g48
(g49
g50
NtRp2895
(dp2896
g53
(dp2897
sg55
(lp2898
g48
(g57
g50
NtRp2899
(dp2900
g53
(dp2901
g61
I5
ssg62
Nsg55
(lp2902
sbasbsS'etype'
p2903
S"<type 'exceptions.TypeError'>"
p2904
sS'date'
p2905
S'Mon Nov 21 09:49:48 2011'
p2906
sS'response'
p2907
g48
(g49
g50
NtRp2908
(dp2909
g53
(dp2910
sg55
(lp2911
g48
(g57
g50
NtRp2912
(dp2913
g53
(dp2914
g61
I5
ssg62
Nsg55
(lp2915
g48
(g64
g50
NtRp2916
(dp2917
g53
(dp2918
sg62
g2912
sg55
(lp2919
g48
(g69
g50
NtRp2920
(dp2921
g53
(dp2922
g73
g74
ssg62
g2916
sg55
(lp2923
g146
asbag48
(g69
g50
NtRp2924
(dp2925
g53
(dp2926
g80
g81
ssg62
g2916
sg55
(lp2927
S':'
asbag48
(g69
g50
NtRp2928
(dp2929
g53
(dp2930
sg62
g2916
sg55
(lp2931
g48
(g49
g50
NtRp2932
(dp2933
g53
(dp2934
g61
I5
ssg62
g2928
sg55
(lp2935
S'<cStringIO.StringO object at 0x032543E0>'
p2936
asbasbasbag48
(g64
g50
NtRp2937
(dp2938
g53
(dp2939
sg62
g2912
sg55
(lp2940
g48
(g69
g50
NtRp2941
(dp2942
g53
(dp2943
g73
g74
ssg62
g2937
sg55
(lp2944
g212
asbag48
(g69
g50
NtRp2945
(dp2946
g53
(dp2947
g80
g81
ssg62
g2937
sg55
(lp2948
S':'
asbag48
(g69
g50
NtRp2949
(dp2950
g53
(dp2951
sg62
g2937
sg55
(lp2952
g48
(g49
g50
NtRp2953
(dp2954
g53
(dp2955
g61
I5
ssg62
g2949
sg55
(lp2956
g48
(g57
g50
NtRp2957
(dp2958
g53
(dp2959
g61
I4
ssg62
Nsg55
(lp2960
g48
(g64
g50
NtRp2961
(dp2962
g53
(dp2963
sg62
g2957
sg55
(lp2964
g48
(g69
g50
NtRp2965
(dp2966
g53
(dp2967
g73
g74
ssg62
g2961
sg55
(lp2968
S'session_id_openopine'
p2969
asbag48
(g69
g50
NtRp2970
(dp2971
g53
(dp2972
g80
g81
ssg62
g2961
sg55
(lp2973
S':'
asbag48
(g69
g50
NtRp2974
(dp2975
g53
(dp2976
sg62
g2961
sg55
(lp2977
g48
(g49
g50
NtRp2978
(dp2979
g53
(dp2980
g61
I4
ssg62
g2974
sg55
(lp2981
g48
(g57
g50
NtRp2982
(dp2983
g53
(dp2984
g61
I3
ssg62
Nsg55
(lp2985
g48
(g64
g50
NtRp2986
(dp2987
g53
(dp2988
sg62
g2982
sg55
(lp2989
g48
(g69
g50
NtRp2990
(dp2991
g53
(dp2992
g73
g74
ssg62
g2986
sg55
(lp2993
g262
asbag48
(g69
g50
NtRp2994
(dp2995
g53
(dp2996
g80
g81
ssg62
g2986
sg55
(lp2997
S':'
asbag48
(g69
g50
NtRp2998
(dp2999
g53
(dp3000
sg62
g2986
sg55
(lp3001
g48
(g49
g50
NtRp3002
(dp3003
g53
(dp3004
g61
I3
ssg62
g2998
sg55
(lp3005
S''
asbasbasbag48
(g64
g50
NtRp3006
(dp3007
g53
(dp3008
sg62
g2982
sg55
(lp3009
g48
(g69
g50
NtRp3010
(dp3011
g53
(dp3012
g73
g74
ssg62
g3006
sg55
(lp3013
g283
asbag48
(g69
g50
NtRp3014
(dp3015
g53
(dp3016
g80
g81
ssg62
g3006
sg55
(lp3017
S':'
asbag48
(g69
g50
NtRp3018
(dp3019
g53
(dp3020
sg62
g3006
sg55
(lp3021
g48
(g49
g50
NtRp3022
(dp3023
g53
(dp3024
g61
I3
ssg62
g3018
sg55
(lp3025
S''
asbasbasbag48
(g64
g50
NtRp3026
(dp3027
g53
(dp3028
sg62
g2982
sg55
(lp3029
g48
(g69
g50
NtRp3030
(dp3031
g53
(dp3032
g73
g74
ssg62
g3026
sg55
(lp3033
g304
asbag48
(g69
g50
NtRp3034
(dp3035
g53
(dp3036
g80
g81
ssg62
g3026
sg55
(lp3037
S':'
asbag48
(g69
g50
NtRp3038
(dp3039
g53
(dp3040
sg62
g3026
sg55
(lp3041
g48
(g49
g50
NtRp3042
(dp3043
g53
(dp3044
g61
I3
ssg62
g3038
sg55
(lp3045
S''
asbasbasbag48
(g64
g50
NtRp3046
(dp3047
g53
(dp3048
sg62
g2982
sg55
(lp3049
g48
(g69
g50
NtRp3050
(dp3051
g53
(dp3052
g73
g74
ssg62
g3046
sg55
(lp3053
g325
asbag48
(g69
g50
NtRp3054
(dp3055
g53
(dp3056
g80
g81
ssg62
g3046
sg55
(lp3057
S':'
asbag48
(g69
g50
NtRp3058
(dp3059
g53
(dp3060
sg62
g3046
sg55
(lp3061
g48
(g49
g50
NtRp3062
(dp3063
g53
(dp3064
g61
I3
ssg62
g3058
sg55
(lp3065
S''
asbasbasbag48
(g64
g50
NtRp3066
(dp3067
g53
(dp3068
sg62
g2982
sg55
(lp3069
g48
(g69
g50
NtRp3070
(dp3071
g53
(dp3072
g73
g74
ssg62
g3066
sg55
(lp3073
g346
asbag48
(g69
g50
NtRp3074
(dp3075
g53
(dp3076
g80
g81
ssg62
g3066
sg55
(lp3077
S':'
asbag48
(g69
g50
NtRp3078
(dp3079
g53
(dp3080
sg62
g3066
sg55
(lp3081
g48
(g49
g50
NtRp3082
(dp3083
g53
(dp3084
g61
I3
ssg62
g3078
sg55
(lp3085
S'/'
asbasbasbag48
(g64
g50
NtRp3086
(dp3087
g53
(dp3088
sg62
g2982
sg55
(lp3089
g48
(g69
g50
NtRp3090
(dp3091
g53
(dp3092
g73
g74
ssg62
g3086
sg55
(lp3093
g367
asbag48
(g69
g50
NtRp3094
(dp3095
g53
(dp3096
g80
g81
ssg62
g3086
sg55
(lp3097
S':'
asbag48
(g69
g50
NtRp3098
(dp3099
g53
(dp3100
sg62
g3086
sg55
(lp3101
g48
(g49
g50
NtRp3102
(dp3103
g53
(dp3104
g61
I3
ssg62
g3098
sg55
(lp3105
S''
asbasbasbag48
(g64
g50
NtRp3106
(dp3107
g53
(dp3108
sg62
g2982
sg55
(lp3109
g48
(g69
g50
NtRp3110
(dp3111
g53
(dp3112
g73
g74
ssg62
g3106
sg55
(lp3113
g388
asbag48
(g69
g50
NtRp3114
(dp3115
g53
(dp3116
g80
g81
ssg62
g3106
sg55
(lp3117
S':'
asbag48
(g69
g50
NtRp3118
(dp3119
g53
(dp3120
sg62
g3106
sg55
(lp3121
g48
(g49
g50
NtRp3122
(dp3123
g53
(dp3124
g61
I3
ssg62
g3118
sg55
(lp3125
S''
asbasbasbasbasbasbasbasbasbasbasbag48
(g64
g50
NtRp3126
(dp3127
g53
(dp3128
sg62
g2912
sg55
(lp3129
g48
(g69
g50
NtRp3130
(dp3131
g53
(dp3132
g73
g74
ssg62
g3126
sg55
(lp3133
S'files'
p3134
asbag48
(g69
g50
NtRp3135
(dp3136
g53
(dp3137
g80
g81
ssg62
g3126
sg55
(lp3138
S':'
asbag48
(g69
g50
NtRp3139
(dp3140
g53
(dp3141
sg62
g3126
sg55
(lp3142
g48
(g49
g50
NtRp3143
(dp3144
g53
(dp3145
g61
I5
ssg62
g3139
sg55
(lp3146
g48
(g57
g50
NtRp3147
(dp3148
g53
(dp3149
g61
I4
ssg62
Nsg55
(lp3150
sbasbasbasbag48
(g64
g50
NtRp3151
(dp3152
g53
(dp3153
sg62
g2912
sg55
(lp3154
g48
(g69
g50
NtRp3155
(dp3156
g53
(dp3157
g73
g74
ssg62
g3151
sg55
(lp3158
S'flash'
p3159
asbag48
(g69
g50
NtRp3160
(dp3161
g53
(dp3162
g80
g81
ssg62
g3151
sg55
(lp3163
S':'
asbag48
(g69
g50
NtRp3164
(dp3165
g53
(dp3166
sg62
g3151
sg55
(lp3167
g48
(g49
g50
NtRp3168
(dp3169
g53
(dp3170
g61
I5
ssg62
g3164
sg55
(lp3171
S''
asbasbasbag48
(g64
g50
NtRp3172
(dp3173
g53
(dp3174
sg62
g2912
sg55
(lp3175
g48
(g69
g50
NtRp3176
(dp3177
g53
(dp3178
g73
g74
ssg62
g3172
sg55
(lp3179
S'generic_patterns'
p3180
asbag48
(g69
g50
NtRp3181
(dp3182
g53
(dp3183
g80
g81
ssg62
g3172
sg55
(lp3184
S':'
asbag48
(g69
g50
NtRp3185
(dp3186
g53
(dp3187
sg62
g3172
sg55
(lp3188
g48
(g49
g50
NtRp3189
(dp3190
g53
(dp3191
g61
I5
ssg62
g3185
sg55
(lp3192
g48
(g57
g50
NtRp3193
(dp3194
g53
(dp3195
g61
I4
ssg62
Nsg55
(lp3196
g48
(g64
g50
NtRp3197
(dp3198
g53
(dp3199
sg62
g3193
sg55
(lp3200
g48
(g69
g50
NtRp3201
(dp3202
g53
(dp3203
sg62
g3197
sg55
(lp3204
g48
(g49
g50
NtRp3205
(dp3206
g53
(dp3207
g61
I4
ssg62
g3201
sg55
(lp3208
S'*'
asbasbasbasbasbasbasbag48
(g64
g50
NtRp3209
(dp3210
g53
(dp3211
sg62
g2912
sg55
(lp3212
g48
(g69
g50
NtRp3213
(dp3214
g53
(dp3215
g73
g74
ssg62
g3209
sg55
(lp3216
S'headers'
p3217
asbag48
(g69
g50
NtRp3218
(dp3219
g53
(dp3220
g80
g81
ssg62
g3209
sg55
(lp3221
S':'
asbag48
(g69
g50
NtRp3222
(dp3223
g53
(dp3224
sg62
g3209
sg55
(lp3225
g48
(g49
g50
NtRp3226
(dp3227
g53
(dp3228
g61
I5
ssg62
g3222
sg55
(lp3229
g48
(g57
g50
NtRp3230
(dp3231
g53
(dp3232
g61
I4
ssg62
Nsg55
(lp3233
g48
(g64
g50
NtRp3234
(dp3235
g53
(dp3236
sg62
g3230
sg55
(lp3237
g48
(g69
g50
NtRp3238
(dp3239
g53
(dp3240
g73
g74
ssg62
g3234
sg55
(lp3241
S'Cache-Control'
p3242
asbag48
(g69
g50
NtRp3243
(dp3244
g53
(dp3245
g80
g81
ssg62
g3234
sg55
(lp3246
S':'
asbag48
(g69
g50
NtRp3247
(dp3248
g53
(dp3249
sg62
g3234
sg55
(lp3250
g48
(g49
g50
NtRp3251
(dp3252
g53
(dp3253
g61
I4
ssg62
g3247
sg55
(lp3254
S'no-store, no-cache, must-revalidate, post-check=0, pre-check=0'
p3255
asbasbasbag48
(g64
g50
NtRp3256
(dp3257
g53
(dp3258
sg62
g3230
sg55
(lp3259
g48
(g69
g50
NtRp3260
(dp3261
g53
(dp3262
g73
g74
ssg62
g3256
sg55
(lp3263
S'Content-Type'
p3264
asbag48
(g69
g50
NtRp3265
(dp3266
g53
(dp3267
g80
g81
ssg62
g3256
sg55
(lp3268
S':'
asbag48
(g69
g50
NtRp3269
(dp3270
g53
(dp3271
sg62
g3256
sg55
(lp3272
g48
(g49
g50
NtRp3273
(dp3274
g53
(dp3275
g61
I4
ssg62
g3269
sg55
(lp3276
S'text/html; charset=utf-8'
p3277
asbasbasbag48
(g64
g50
NtRp3278
(dp3279
g53
(dp3280
sg62
g3230
sg55
(lp3281
g48
(g69
g50
NtRp3282
(dp3283
g53
(dp3284
g73
g74
ssg62
g3278
sg55
(lp3285
S'Expires'
p3286
asbag48
(g69
g50
NtRp3287
(dp3288
g53
(dp3289
g80
g81
ssg62
g3278
sg55
(lp3290
S':'
asbag48
(g69
g50
NtRp3291
(dp3292
g53
(dp3293
sg62
g3278
sg55
(lp3294
g48
(g49
g50
NtRp3295
(dp3296
g53
(dp3297
g61
I4
ssg62
g3291
sg55
(lp3298
S'Mon, 21 Nov 2011 08:49:48 GMT'
p3299
asbasbasbag48
(g64
g50
NtRp3300
(dp3301
g53
(dp3302
sg62
g3230
sg55
(lp3303
g48
(g69
g50
NtRp3304
(dp3305
g53
(dp3306
g73
g74
ssg62
g3300
sg55
(lp3307
S'Pragma'
p3308
asbag48
(g69
g50
NtRp3309
(dp3310
g53
(dp3311
g80
g81
ssg62
g3300
sg55
(lp3312
S':'
asbag48
(g69
g50
NtRp3313
(dp3314
g53
(dp3315
sg62
g3300
sg55
(lp3316
g48
(g49
g50
NtRp3317
(dp3318
g53
(dp3319
g61
I4
ssg62
g3313
sg55
(lp3320
S'no-cache'
p3321
asbasbasbag48
(g64
g50
NtRp3322
(dp3323
g53
(dp3324
sg62
g3230
sg55
(lp3325
g48
(g69
g50
NtRp3326
(dp3327
g53
(dp3328
g73
g74
ssg62
g3322
sg55
(lp3329
S'X-Powered-By'
p3330
asbag48
(g69
g50
NtRp3331
(dp3332
g53
(dp3333
g80
g81
ssg62
g3322
sg55
(lp3334
S':'
asbag48
(g69
g50
NtRp3335
(dp3336
g53
(dp3337
sg62
g3322
sg55
(lp3338
g48
(g49
g50
NtRp3339
(dp3340
g53
(dp3341
g61
I4
ssg62
g3335
sg55
(lp3342
S'web2py'
p3343
asbasbasbasbasbasbasbag48
(g64
g50
NtRp3344
(dp3345
g53
(dp3346
sg62
g2912
sg55
(lp3347
g48
(g69
g50
NtRp3348
(dp3349
g53
(dp3350
g73
g74
ssg62
g3344
sg55
(lp3351
S'menu'
p3352
asbag48
(g69
g50
NtRp3353
(dp3354
g53
(dp3355
g80
g81
ssg62
g3344
sg55
(lp3356
S':'
asbag48
(g69
g50
NtRp3357
(dp3358
g53
(dp3359
sg62
g3344
sg55
(lp3360
g48
(g49
g50
NtRp3361
(dp3362
g53
(dp3363
g61
I5
ssg62
g3357
sg55
(lp3364
g48
(g57
g50
NtRp3365
(dp3366
g53
(dp3367
g61
I4
ssg62
Nsg55
(lp3368
sbasbasbasbag48
(g64
g50
NtRp3369
(dp3370
g53
(dp3371
sg62
g2912
sg55
(lp3372
g48
(g69
g50
NtRp3373
(dp3374
g53
(dp3375
g73
g74
ssg62
g3369
sg55
(lp3376
S'meta'
p3377
asbag48
(g69
g50
NtRp3378
(dp3379
g53
(dp3380
g80
g81
ssg62
g3369
sg55
(lp3381
S':'
asbag48
(g69
g50
NtRp3382
(dp3383
g53
(dp3384
sg62
g3369
sg55
(lp3385
g48
(g49
g50
NtRp3386
(dp3387
g53
(dp3388
g61
I5
ssg62
g3382
sg55
(lp3389
g48
(g57
g50
NtRp3390
(dp3391
g53
(dp3392
g61
I4
ssg62
Nsg55
(lp3393
sbasbasbasbag48
(g64
g50
NtRp3394
(dp3395
g53
(dp3396
sg62
g2912
sg55
(lp3397
g48
(g69
g50
NtRp3398
(dp3399
g53
(dp3400
g73
g74
ssg62
g3394
sg55
(lp3401
S'postprocessing'
p3402
asbag48
(g69
g50
NtRp3403
(dp3404
g53
(dp3405
g80
g81
ssg62
g3394
sg55
(lp3406
S':'
asbag48
(g69
g50
NtRp3407
(dp3408
g53
(dp3409
sg62
g3394
sg55
(lp3410
g48
(g49
g50
NtRp3411
(dp3412
g53
(dp3413
g61
I5
ssg62
g3407
sg55
(lp3414
g48
(g57
g50
NtRp3415
(dp3416
g53
(dp3417
g61
I4
ssg62
Nsg55
(lp3418
sbasbasbasbag48
(g64
g50
NtRp3419
(dp3420
g53
(dp3421
sg62
g2912
sg55
(lp3422
g48
(g69
g50
NtRp3423
(dp3424
g53
(dp3425
g73
g74
ssg62
g3419
sg55
(lp3426
S'session_filename'
p3427
asbag48
(g69
g50
NtRp3428
(dp3429
g53
(dp3430
g80
g81
ssg62
g3419
sg55
(lp3431
S':'
asbag48
(g69
g50
NtRp3432
(dp3433
g53
(dp3434
sg62
g3419
sg55
(lp3435
g48
(g49
g50
NtRp3436
(dp3437
g53
(dp3438
g61
I5
ssg62
g3432
sg55
(lp3439
S'C:\\Users\\Do It\\Desktop\\web2py_opine\\web2py\\applications\\openopine\\sessions\\127.0.0.1-5d1a5257-0ea7-4f24-9156-5dcd0b99de76'
p3440
asbasbasbag48
(g64
g50
NtRp3441
(dp3442
g53
(dp3443
sg62
g2912
sg55
(lp3444
g48
(g69
g50
NtRp3445
(dp3446
g53
(dp3447
g73
g74
ssg62
g3441
sg55
(lp3448
S'session_id'
p3449
asbag48
(g69
g50
NtRp3450
(dp3451
g53
(dp3452
g80
g81
ssg62
g3441
sg55
(lp3453
S':'
asbag48
(g69
g50
NtRp3454
(dp3455
g53
(dp3456
sg62
g3441
sg55
(lp3457
g48
(g49
g50
NtRp3458
(dp3459
g53
(dp3460
g61
I5
ssg62
g3454
sg55
(lp3461
S'127.0.0.1-5d1a5257-0ea7-4f24-9156-5dcd0b99de76'
p3462
asbasbasbag48
(g64
g50
NtRp3463
(dp3464
g53
(dp3465
sg62
g2912
sg55
(lp3466
g48
(g69
g50
NtRp3467
(dp3468
g53
(dp3469
g73
g74
ssg62
g3463
sg55
(lp3470
S'session_id_name'
p3471
asbag48
(g69
g50
NtRp3472
(dp3473
g53
(dp3474
g80
g81
ssg62
g3463
sg55
(lp3475
S':'
asbag48
(g69
g50
NtRp3476
(dp3477
g53
(dp3478
sg62
g3463
sg55
(lp3479
g48
(g49
g50
NtRp3480
(dp3481
g53
(dp3482
g61
I5
ssg62
g3476
sg55
(lp3483
g2969
asbasbasbag48
(g64
g50
NtRp3484
(dp3485
g53
(dp3486
sg62
g2912
sg55
(lp3487
g48
(g69
g50
NtRp3488
(dp3489
g53
(dp3490
g73
g74
ssg62
g3484
sg55
(lp3491
S'session_new'
p3492
asbag48
(g69
g50
NtRp3493
(dp3494
g53
(dp3495
g80
g81
ssg62
g3484
sg55
(lp3496
S':'
asbag48
(g69
g50
NtRp3497
(dp3498
g53
(dp3499
sg62
g3484
sg55
(lp3500
g48
(g49
g50
NtRp3501
(dp3502
g53
(dp3503
g61
I5
ssg62
g3497
sg55
(lp3504
g1565
asbasbasbag48
(g64
g50
NtRp3505
(dp3506
g53
(dp3507
sg62
g2912
sg55
(lp3508
g48
(g69
g50
NtRp3509
(dp3510
g53
(dp3511
g73
g74
ssg62
g3505
sg55
(lp3512
S'status'
p3513
asbag48
(g69
g50
NtRp3514
(dp3515
g53
(dp3516
g80
g81
ssg62
g3505
sg55
(lp3517
S':'
asbag48
(g69
g50
NtRp3518
(dp3519
g53
(dp3520
sg62
g3505
sg55
(lp3521
g48
(g49
g50
NtRp3522
(dp3523
g53
(dp3524
g61
I5
ssg62
g3518
sg55
(lp3525
S'200'
p3526
asbasbasbag48
(g64
g50
NtRp3527
(dp3528
g53
(dp3529
sg62
g2912
sg55
(lp3530
g48
(g69
g50
NtRp3531
(dp3532
g53
(dp3533
g73
g74
ssg62
g3527
sg55
(lp3534
g2209
asbag48
(g69
g50
NtRp3535
(dp3536
g53
(dp3537
g80
g81
ssg62
g3527
sg55
(lp3538
S':'
asbag48
(g69
g50
NtRp3539
(dp3540
g53
(dp3541
sg62
g3527
sg55
(lp3542
g48
(g49
g50
NtRp3543
(dp3544
g53
(dp3545
g61
I5
ssg62
g3539
sg55
(lp3546
g2222
asbasbasbag48
(g64
g50
NtRp3547
(dp3548
g53
(dp3549
sg62
g2912
sg55
(lp3550
g48
(g69
g50
NtRp3551
(dp3552
g53
(dp3553
g73
g74
ssg62
g3547
sg55
(lp3554
S'view'
p3555
asbag48
(g69
g50
NtRp3556
(dp3557
g53
(dp3558
g80
g81
ssg62
g3547
sg55
(lp3559
S':'
asbag48
(g69
g50
NtRp3560
(dp3561
g53
(dp3562
sg62
g3547
sg55
(lp3563
g48
(g49
g50
NtRp3564
(dp3565
g53
(dp3566
g61
I5
ssg62
g3560
sg55
(lp3567
S'default/index.html'
p3568
asbasbasbasbasbsS'locals'
p3569
(dp3570
S'Service'
p3571
S"<class 'gluon.tools.Service'>"
p3572
sS'OBJECT'
p3573
S"<class 'gluon.html.OBJECT'>"
p3574
sS'SQLDB'
p3575
S"<class 'gluon.dal.DAL'>"
p3576
sg2894
S"<Storage {'_Session__hash': '\\xc8[\\xd5\\xc1#\\xd8e\\x10\\xe3\\x06\\x0ba\\xddT\\x92m'}>"
p3577
sS'LINK'
p3578
S"<class 'gluon.html.LINK'>"
p3579
sS'BR'
p3580
S"<class 'gluon.html.BR'>"
p3581
sS'local_import'
p3582
S'<function <lambda> at 0x06E98C30>'
p3583
sS'OPTGROUP'
p3584
S"<class 'gluon.html.OPTGROUP'>"
p3585
sS'PRE'
p3586
S"<class 'gluon.html.PRE'>"
p3587
sS'IS_INT_IN_RANGE'
p3588
S"<class 'gluon.validators.IS_INT_IN_RANGE'>"
p3589
sS'IS_LOWER'
p3590
S"<class 'gluon.validators.IS_LOWER'>"
p3591
sS'IS_STRONG'
p3592
S"<class 'gluon.validators.IS_STRONG'>"
p3593
sS'cache'
p3594
S'<gluon.cache.Cache object at 0x032541D0>'
p3595
sS'IS_IN_DB'
p3596
S"<class 'gluon.validators.IS_IN_DB'>"
p3597
sS'TAG'
p3598
S'<gluon.html.__TAG__ object at 0x022B0B70>'
p3599
sS'SQLField'
p3600
S"<class 'gluon.dal.Field'>"
p3601
sS'mail'
p3602
S'<gluon.tools.Mail object at 0x06BE0A10>'
p3603
sS'BODY'
p3604
S"<class 'gluon.html.BODY'>"
p3605
sS'IS_DATE_IN_RANGE'
p3606
S"<class 'gluon.validators.IS_DATE_IN_RANGE'>"
p3607
sS'IFRAME'
p3608
S"<class 'gluon.html.IFRAME'>"
p3609
sS'URL'
p3610
S'<function URL at 0x0281A6F0>'
p3611
sS'__file__'
p3612
S"r'C:\\Users\\Do It\\Desktop\\web2py_opine\\web2py\\applications\\openopine\\models\\db.py'"
p3613
sS'db'
p3614
S"<DAL {'event': <Table {'about': <gluon.dal.Field... 'id': <gluon.dal.Field object at 0x033975D0>}>}>"
p3615
sS'auth'
p3616
S'<gluon.tools.Auth object at 0x06BE0330>'
p3617
sS'P'
S"<class 'gluon.html.P'>"
p3618
sS'TFOOT'
p3619
S"<class 'gluon.html.TFOOT'>"
p3620
sS'XHTML'
p3621
S"<class 'gluon.html.XHTML'>"
p3622
sS'ON'
p3623
g1565
sS'OL'
p3624
S"<class 'gluon.html.OL'>"
p3625
sS'TEXTAREA'
p3626
S"<class 'gluon.html.TEXTAREA'>"
p3627
sS'MENU'
p3628
S"<class 'gluon.html.MENU'>"
p3629
sS'EM'
p3630
S"<class 'gluon.html.EM'>"
p3631
sS'CODE'
p3632
S"<class 'gluon.html.CODE'>"
p3633
sS'HTTP'
p3634
S"<class 'gluon.http.HTTP'>"
p3635
sS'HR'
p3636
S"<class 'gluon.html.HR'>"
p3637
sS'IS_DATETIME'
p3638
S"<class 'gluon.validators.IS_DATETIME'>"
p3639
sS'STYLE'
p3640
S"<class 'gluon.html.STYLE'>"
p3641
sS'LABEL'
p3642
S"<class 'gluon.html.LABEL'>"
p3643
sS'META'
p3644
S"<class 'gluon.html.META'>"
p3645
sS'plugins'
p3646
S'<gluon.tools.PluginManager object at 0x032872F0>'
p3647
sS'SELECT'
p3648
S"<class 'gluon.html.SELECT'>"
p3649
sS'CENTER'
p3650
S"<class 'gluon.html.CENTER'>"
p3651
sS'prettydate'
p3652
S'<function prettydate at 0x0323D170>'
p3653
sS'Crud'
p3654
S"<class 'gluon.tools.Crud'>"
p3655
sS'Auth'
p3656
S"<class 'gluon.tools.Auth'>"
p3657
sS'__builtins__'
p3658
S"{'ArithmeticError': <type 'exceptions.ArithmeticError'>, 'AssertionError': <type 'exceptions.AssertionError'>, 'AttributeError': <type 'exceptions.AttributeError'>, 'BaseException': <type 'exceptions.BaseException'>, 'DeprecationWarning': <type 'exceptions.DeprecationWarning'>, 'EOFError': <type 'exceptions.EOFError'>, 'Ellipsis': Ellipsis, 'EnvironmentError': <type 'exceptions.EnvironmentError'>, 'Exception': <type 'exceptions.Exception'>, 'False': False, ...}"
p3659
sS'HTML'
p3660
S"<class 'gluon.html.HTML'>"
p3661
sS'SQLFORM'
p3662
S"<class 'gluon.sqlhtml.SQLFORM'>"
p3663
sS'LOAD'
p3664
S'<gluon.compileapp.LoadFactory object at 0x032547D0>'
p3665
sS'redirect'
p3666
S'<function redirect at 0x02192BF0>'
p3667
sS'FIELDSET'
p3668
S"<class 'gluon.html.FIELDSET'>"
p3669
sS'IS_EQUAL_TO'
p3670
S"<class 'gluon.validators.IS_EQUAL_TO'>"
p3671
sS'embed64'
p3672
S'<function embed64 at 0x028291F0>'
p3673
sS'IS_LIST_OF'
p3674
S"<class 'gluon.validators.IS_LIST_OF'>"
p3675
sS'INPUT'
p3676
S"<class 'gluon.html.INPUT'>"
p3677
sS'EMBED'
p3678
S"<class 'gluon.html.EMBED'>"
p3679
sS'FORM'
p3680
S"<class 'gluon.html.FORM'>"
p3681
sS'H2'
p3682
S"<class 'gluon.html.H2'>"
p3683
sS'H3'
p3684
S"<class 'gluon.html.H3'>"
p3685
sS'BUTTON'
p3686
S"<class 'gluon.html.BUTTON'>"
p3687
sS'H1'
p3688
S"<class 'gluon.html.H1'>"
p3689
sS'H6'
p3690
S"<class 'gluon.html.H6'>"
p3691
sS'H4'
p3692
S"<class 'gluon.html.H4'>"
p3693
sS'H5'
p3694
S"<class 'gluon.html.H5'>"
p3695
sS'UL'
p3696
S"<class 'gluon.html.UL'>"
p3697
sS'IS_UPPER'
p3698
S"<class 'gluon.validators.IS_UPPER'>"
p3699
sS'xmlescape'
p3700
S'<function xmlescape at 0x0281A670>'
p3701
sS'IS_TIME'
p3702
S"<class 'gluon.validators.IS_TIME'>"
p3703
sS'OPTION'
p3704
S"<class 'gluon.html.OPTION'>"
p3705
sS'TITLE'
p3706
S"<class 'gluon.html.TITLE'>"
p3707
sS'CRYPT'
p3708
S"<class 'gluon.validators.CRYPT'>"
p3709
sS'IS_EMPTY_OR'
p3710
S"<class 'gluon.validators.IS_EMPTY_OR'>"
p3711
sS'MARKMIN'
p3712
S"<class 'gluon.html.MARKMIN'>"
p3713
sS'COL'
p3714
S"<class 'gluon.html.COL'>"
p3715
sS'service'
p3716
S'<gluon.tools.Service object at 0x06BE0D10>'
p3717
sS'SCRIPT'
p3718
S"<class 'gluon.html.SCRIPT'>"
p3719
sS'TABLE'
p3720
S"<class 'gluon.html.TABLE'>"
p3721
sS'IS_IPV4'
p3722
S"<class 'gluon.validators.IS_IPV4'>"
p3723
sS'IS_LENGTH'
p3724
S"<class 'gluon.validators.IS_LENGTH'>"
p3725
sS'XML'
p3726
S"<class 'gluon.html.XML'>"
p3727
sS'B'
S"<class 'gluon.html.B'>"
p3728
sS'IMG'
p3729
S"<class 'gluon.html.IMG'>"
p3730
sS'SQLTABLE'
p3731
S"<class 'gluon.sqlhtml.SQLTABLE'>"
p3732
sS'IS_MATCH'
p3733
S"<class 'gluon.validators.IS_MATCH'>"
p3734
sS'IS_ALPHANUMERIC'
p3735
S"<class 'gluon.validators.IS_ALPHANUMERIC'>"
p3736
sS'SPAN'
p3737
S"<class 'gluon.html.SPAN'>"
p3738
sS'IS_SLUG'
p3739
S"<class 'gluon.validators.IS_SLUG'>"
p3740
sS'CLEANUP'
p3741
S"<class 'gluon.validators.CLEANUP'>"
p3742
sS'OptionsWidget'
p3743
S'<function widget at 0x029D3F30>'
p3744
sS'IS_DATE'
p3745
S"<class 'gluon.validators.IS_DATE'>"
p3746
sS'IS_EMAIL'
p3747
S"<class 'gluon.validators.IS_EMAIL'>"
p3748
sS'IS_NOT_EMPTY'
p3749
S"<class 'gluon.validators.IS_NOT_EMPTY'>"
p3750
sS'IS_FLOAT_IN_RANGE'
p3751
S"<class 'gluon.validators.IS_FLOAT_IN_RANGE'>"
p3752
sS'BEAUTIFY'
p3753
S"<class 'gluon.html.BEAUTIFY'>"
p3754
sS'TBODY'
p3755
S"<class 'gluon.html.TBODY'>"
p3756
sS'CAT'
p3757
S"<class 'gluon.html.CAT'>"
p3758
sS'Field'
p3759
S"<class 'gluon.dal.Field'>"
p3760
sS'DIV'
p3761
S"<class 'gluon.html.DIV'>"
p3762
sS'LEGEND'
p3763
S"<class 'gluon.html.LEGEND'>"
p3764
sS'COLGROUP'
p3765
S"<class 'gluon.html.COLGROUP'>"
p3766
sS'DAL'
p3767
S"<class 'gluon.dal.DAL'>"
p3768
sS'TT'
p3769
S"<class 'gluon.html.TT'>"
p3770
sS'TR'
p3771
S"<class 'gluon.html.TR'>"
p3772
sS'LI'
p3773
S"<class 'gluon.html.LI'>"
p3774
sS'TH'
p3775
S"<class 'gluon.html.TH'>"
p3776
sS'TD'
p3777
S"<class 'gluon.html.TD'>"
p3778
sS'PluginManager'
p3779
S"<class 'gluon.tools.PluginManager'>"
p3780
sS'IS_URL'
p3781
S"<class 'gluon.validators.IS_URL'>"
p3782
sS'A'
S"<class 'gluon.html.A'>"
p3783
sS'HEAD'
p3784
S"<class 'gluon.html.HEAD'>"
p3785
sS'IS_DATETIME_IN_RANGE'
p3786
S"<class 'gluon.validators.IS_DATETIME_IN_RANGE'>"
p3787
sS'IS_IMAGE'
p3788
S"<class 'gluon.validators.IS_IMAGE'>"
p3789
sS'I'
S"<class 'gluon.html.I'>"
p3790
sS'crud'
p3791
S'<gluon.tools.Crud object at 0x06BE0F50>'
p3792
sS'IS_NOT_IN_DB'
p3793
S"<class 'gluon.validators.IS_NOT_IN_DB'>"
p3794
sg2907
S"<Storage {'status': 200, 'body': <cStringIO.Stri...2F0>, 'files': [], 'view': 'default/index.html'}>"
p3795
sS'THEAD'
p3796
S"<class 'gluon.html.THEAD'>"
p3797
sS'IS_NULL_OR'
p3798
S"<class 'gluon.validators.IS_EMPTY_OR'>"
p3799
sg47
S"<Storage {'body': <cStringIO.StringO object at 0..._vars': <Storage {}>, 'post_vars': <Storage {}>}>"
p3800
sS'IS_EXPR'
p3801
S"<class 'gluon.validators.IS_EXPR'>"
p3802
sS'IS_IN_SET'
p3803
S"<class 'gluon.validators.IS_IN_SET'>"
p3804
sS'IS_UPLOAD_FILENAME'
p3805
S"<class 'gluon.validators.IS_UPLOAD_FILENAME'>"
p3806
sS'IS_DECIMAL_IN_RANGE'
p3807
S"<class 'gluon.validators.IS_DECIMAL_IN_RANGE'>"
p3808
sS'T'
S'<gluon.languages.translator object at 0x03254AD0>'
p3809
sssS'traceback'
p3810
S'Traceback (most recent call last):\n  File "C:\\Users\\Do It\\Desktop\\web2py_opine\\web2py\\gluon\\restricted.py", line 194, in restricted\n    exec ccode in environment\n  File "C:\\Users\\Do It\\Desktop\\web2py_opine\\web2py\\applications\\openopine\\models\\db.py", line 125, in <module>\n    class RatingWidget(OptionsWidget):\nTypeError: Error when calling the metaclass bases\n    function() argument 1 must be code, not str\n'
p3811
s.