(dp1
S'output'
p2
S''
sS'layer'
p3
S'C:\\Users\\Do It\\Desktop\\web2py_opine\\web2py\\applications\\openopine\\controllers/default.py'
p4
sS'code'
p5
S'# -*- coding: utf-8 -*-\n\n#########################################################################\n## (C) a theory of publishing, Equimind Financial LLC.\n##  Written by Casey Schroeder, Equimind Financial LLC.\n##  All rights reserved.\n##\n##  Powered by web2py, Thanks Massimo!\n#########################################################################\n\ntry:\n    request_arg_1 = request.args[0]\nexcept:\n    request_arg_1 = -1\n\n\ndef user():\n    """\n    exposes:\n    http://..../[app]/default/user/login\n    http://..../[app]/default/user/logout\n    http://..../[app]/default/user/register\n    http://..../[app]/default/user/profile\n    http://..../[app]/default/user/retrieve_password\n    http://..../[app]/default/user/change_password\n    use @auth.requires_login()\n        @auth.requires_membership(\'group name\')\n        @auth.requires_permission(\'read\',\'table name\',record_id)\n    to decorate functions that need access control\n    """\n    return dict(searchrevs=[], searchprofs=[],tag_form=\'\',form=auth())\n\n\ndef download():\n    """\n    allows downloading of uploaded files\n    http://..../[app]/default/download/[filename]\n    """\n    return response.download(request,db)\n\n\ndef call():\n    """\n    exposes services. for example:\n    http://..../[app]/default/call/jsonrpc\n    decorate with @services.jsonrpc the functions to expose\n    supports xml, json, xmlrpc, jsonrpc, amfrpc, rss, csv\n    """\n    return service()\n\n\n@auth.requires_signature()\ndef data():\n    """\n    http://..../[app]/default/data/tables\n    http://..../[app]/default/data/create/[table]\n    http://..../[app]/default/data/read/[table]/[id]\n    http://..../[app]/default/data/update/[table]/[id]\n    http://..../[app]/default/data/delete/[table]/[id]\n    http://..../[app]/default/data/select/[table]\n    http://..../[app]/default/data/search/[table]\n    but URLs bust be signed, i.e. linked with\n      A(\'table\',_href=URL(\'data/tables\',user_signature=True))\n    or with the signed load operator\n      LOAD(\'default\',\'data.load\',args=\'tables\',ajax=True,user_signature=True)\n    """\n    return dict(form=crud())\n\ndef quick_search(t=True):\n    profurl = [URL(request.application, \'default\', \'profiles\', vars=dict(tbl=\'region\')),\n               URL(request.application, \'default\', \'profiles\', vars=dict(tbl=\'place\')),\n               URL(request.application, \'default\', \'profiles\', vars=dict(tbl=\'event\')),\n               ]\n    reviewurl = [URL(request.application, \'default\', \'reviews\', vars=dict(tbl=\'region\')),\n               URL(request.application, \'default\', \'reviews\', vars=dict(tbl=\'place\')),\n               URL(request.application, \'default\', \'reviews\', vars=dict(tbl=\'event\')),\n               ]\n    reviews = [[T(\'Companies\'), reviewurl[0]], [T(\'Products\'), reviewurl[1]], [T(\'Events\'), reviewurl[2]]]\n    profiles = [ [T(\'Companies\'), profurl[0]],[T(\'Products\'), profurl[1]], [T(\'Events\'), profurl[2]] ]\n    return reviews, profiles\n\ndef index():\n    reviews, profiles = quick_search()\n    return dict(searchrevs=reviews, searchprofs=profiles, tag_form=\'\',message=T(\'Welcome\'))\n\ndef reviewers():\n    search_type = \'reviewers\'\n    if request_arg_1>0: page = int(request_arg_1)\n    else: page = 0\n    items_per_page = 12\n    limitby=(items_per_page*page, items_per_page*(page+1)+1)\n    recs = db().select(db.reviewer.userid, db.reviewer.id, db.reviewer.photo, db.reviewer.city, db.reviewer.about_me, db.reviewer.screenname, limitby=limitby, orderby=~db.reviewer.screenname)\n    return dict(searchrevs=[], searchprofs=[],tag_form=\'\', recs=recs, page=page, items_per_page=items_per_page, redirecttype=\'reviewer_profile\', search_type=search_type, message=T(\'the people\'))\n\ndef reviewer_profile():\n    rec = db(db.reviewer.id==request_arg_1).select(db.reviewer.ALL)\n    profile_photo_limit = 10\n    if len(rec): rec = rec[0]\n    else: redirect(URL(request.application, \'default\' ,\'reviewers\'))\n    graphics = []\n    for name in (\'place\',\'event\',\'region\'):\n        tablepics = db[name+"_review"]\n        photos = db(tablepics.author == request_arg_1).select(tablepics.ALL)\n        graphics += photo_list(photos, min(profile_photo_limit,len(photos)), redirect=name, first="title", secondary="subject")\n    return dict(graphics=graphics, searchrevs=[], searchprofs=[],tag_form=\'\', rec=rec, message= rec.screenname)\n\ndef reviews():\n    search_type = \'review\'\n    sv = session.tablename\n    try:\n        session.tablename = request.vars[\'tbl\']\n    except:\n        session.tablename = sv\n    if not (session.tablename in (\'place\',\'event\',\'region\')): \n        session.tablename = None\n        redirect(URL(request.application, \'default\', \'index\'))\n    if request_arg_1>0: page = int(request_arg_1)\n    else: page = 0\n    items_per_page = 12\n    limitby=(items_per_page*page, items_per_page*(page+1)+1)\n    table = db[session.tablename+"_"+search_type]\n    recs = db().select(table.id, table.photo, table.blurb, table.title, table.subject, limitby=limitby)\n    viewname = tablelabel(session.tablename)\n    reviews, profiles = quick_search()\n    return dict(searchrevs=[], searchprofs=reviews, tag_form=\'\', recs=recs, page=page, tablename=session.tablename, items_per_page=items_per_page, redirecttype=\'review\', search_type=search_type, message=T(\'%(tbl)s Reviews\', dict(tbl=viewname)))\n\ndef process_comments(reftablename, record_id):\n    table=db.plugin_simple_comments_comment\n    table.tablename.default = reftablename\n    table.record_id.default = record_id\n    table.body.widget = SQLFORM.widgets.string.widget\n    form=SQLFORM(table)\n    form.accepts(request.post_vars)\n    comments=db((table.tablename==reftablename) & (table.record_id==record_id)).select()\n    return comments, form\n\ndef review():\n    search_type = \'review\'\n    sv = session.tablename\n    try:\n        session.tablename = request.vars[\'tbl\']\n    except:\n        session.tablename = sv\n    if not (session.tablename in (\'place\',\'event\',\'region\')): \n        session.tablename = None\n        redirect(URL(request.application, \'default\', \'index\'))\n    if not (request_arg_1>0): redirect(URL(request.application, \'default\' ,\'reviews\', vars=dict(tbl=\'place\')))\n    fulltablename = session.tablename+"_"+search_type\n    table = db[fulltablename]\n    rec = db(table.id==request_arg_1).select(table.ALL)\n    if len(rec): rec = rec[0]\n    else: redirect(URL(request.application, \'default\' ,\'reviews\', vars=dict(tbl=\'place\')))\n    name = db[session.tablename][rec.ref_id].name\n    if auth.is_logged_in():\n        comments, form = process_comments(fulltablename, request_arg_1)\n    else:\n        comments = []\n        form = None\n    return dict(comments=comments, tablename=session.tablename, form=form, searchrevs=[], searchprofs=[],tag_form=\'\', name = name, rec=rec, message=T(\'%(title)s: %(subject)s\', rec))\n\ndef profiles():\n    search_type = \'profile\'\n    sv = session.tablename\n    try:\n        session.tablename = request.vars[\'tbl\']\n    except:\n        session.tablename = sv        \n    if not (session.tablename in (\'place\',\'event\',\'region\')): \n        session.tablename = None\n        redirect(URL(request.application, \'default\', \'index\'))\n    if request_arg_1>0: page = int(request_arg_1)\n    else: page = 0\n    session.tablename in (\'place\',\'event\',\'region\')    \n    items_per_page = 12\n    limitby=(items_per_page*page, items_per_page*(page+1)+1)\n    table = db[session.tablename]\n    recs = db().select(table.id, table.photo, table.name, table.about, limitby=limitby)\n    viewname = tablelabel(session.tablename)\n    reviews, profiles = quick_search()    \n    return dict(searchrevs=[], searchprofs=profiles, tag_form=\'\', recs=recs, page=page, items_per_page=items_per_page, redirecttype=\'profile\', search_type=search_type, tablename=session.tablename, message=T(\'%(tbl)s Profiles\', dict(tbl=viewname)))\n\ndef profile():\n    search_type = \'profile\'\n    profile_photo_limit = 12\n    sv = session.tablename\n    try:\n        session.tablename = request.vars[\'tbl\']\n    except:\n        session.tablename = sv\n    if not (session.tablename in (\'place\',\'event\',\'region\')): \n        session.tablename = None\n        redirect(URL(request.application, \'default\' ,\'profiles\', vars=dict(tbl=\'place\')))\n    if not (request_arg_1>0): redirect(URL(request.application, \'default\' ,\'profiles\', vars=dict(tbl=\'place\')))\n    if (session.tablename in (\'place\',\'event\')): place_or_event = True\n    else: place_or_event = False\n    table = db[session.tablename]\n    rec = db(table.id==request_arg_1).select(table.ALL)\n    if len(rec): rec = rec[0]\n    else: redirect(URL(request.application, \'default\' ,\'profiles\', vars=dict(tbl=\'place\')))\n    rgraphics = []\n    egraphics = []\n    if not place_or_event:\n        rpics = db(db.place.region == request_arg_1).select(db.place.ALL)\n        epics = db(db.event.region == request_arg_1).select(db.event.ALL)\n        rgraphics = photo_list(rpics, min(profile_photo_limit/3,len(rpics)), redirect=\'places\', photo_field=\'photo\', first=\'name\', secondary=None, random_disp=True, reverse=False)\n        egraphics = photo_list(epics, min(profile_photo_limit/3,len(epics)), redirect=\'places\', photo_field=\'photo\', first=\'name\', secondary=None, random_disp=True, reverse=False)\n    tablepics = db[session.tablename+"_review"]\n    photos = db(tablepics.ref_id == request_arg_1).select(tablepics.ALL)\n    graphics = photo_list(photos, min(profile_photo_limit/3,len(photos)), redirect=session.tablename, first="title", secondary="subject")\n    return dict(graphics=graphics, rgraphics=rgraphics, egraphics=egraphics, searchrevs=[], searchprofs=[],tag_form=\'\', place_or_event= place_or_event, rec=rec, message=T(\'%(name)s\', rec))\n\n@auth.requires_membership(\'reviewer\')\ndef create_profile():\n    search_type = "profile"\n    sv = session.tablename\n    try:\n        session.tablename = request.vars[\'tbl\']\n    except:\n        session.tablename = sv\n    if not (session.tablename in (\'place\',\'event\',\'region\')): \n        session.tablename = None\n        redirect(URL(request.application, \'default\', \'index\'))\n    table = db[session.tablename]\n    table.id.readable = False\n    table.photo.readable = False\n    table.about.readable = False\n    if session.tablename in (\'place\', \'event\'):\n        table.region.represent = lambda id, row: db.region[id].name\n    if request.args:\n        if request.args[0] == "view":\n            if len(request.args)>1:\n                redirect(URL(request.application, \'default\',\'profile\', args=[request.args[2]], vars=dict(tbl=session.tablename)))\n            else:\n                session.tablename = None\n                redirect(URL(request.application, \'default\', \'index\'))\n        if request.args[0] == "edit":\n            table.photo.readable = True\n            table.about.readable = True\n    \n    viewname = tablelabel(session.tablename)\n    if session.tablename in (\'place\', \'event\'):\n        form = SQLFORM.grid(table, maxtextlength=20, csv=False,\\\n            headers=dict([(session.tablename+\'.name\',viewname),(session.tablename+\'.blurb\', T(\'Short Description\')),(session.tablename+\'.region\', T("Location"))]), columns=dict([(session.tablename+\'.name\',20),(session.tablename+\'.blurb\', 20),(session.tablename+\'.region\', 20)]))\n    else:\n        form = SQLFORM.grid(table, maxtextlength=20, csv=False,\\\n            headers=dict([(session.tablename+\'.name\',T("Name")),(session.tablename+\'.blurb\', T(\'Short Description\')),(session.tablename+\'.city\', T("City")),(session.tablename+\'.state\', T("State")),(session.tablename+\'.country\', T("Country"))]), columns=dict([(session.tablename+\'.name\',15),(session.tablename+\'.blurb\', 15),(session.tablename+\'.city\', 15),(session.tablename+\'.state\', 15),(session.tablename+\'.country\', 15)]))\n    return dict(searchrevs=[], searchprofs=[], tag_form=\'\', form=form,message=T(\'Create %(tbl)s Profile\', dict(tbl=viewname)))\n\n@auth.requires_membership(\'reviewer\')\ndef create_review():\n    search_type = "review"\n    sv = session.tablename\n    try:\n        session.tablename = request.vars[\'tbl\']\n    except:\n        session.tablename = sv\n    if not (session.tablename in (\'place\',\'event\',\'region\')): \n        session.tablename = None\n        redirect(URL(request.application, \'default\', \'index\'))\n    table = db[session.tablename+"_"+search_type]\n    table.id.readable = False\n    table.photo.readable = False\n    table.photo1.readable = False\n    table.photo2.readable = False\n    table.date.readable = table.date.writable= False\n    table.ref_id.represent = lambda id, row: db[session.tablename][id].name\n    table.author.represent = lambda auid, row: db.reviewer[auid].screenname\n    if request.args:\n        if request.args[0] == "view":\n            if len(request.args)>1:\n                redirect(URL(request.application, \'default\',\'review\', args=[request.args[2]], vars=dict(tbl=session.tablename)))\n            else:\n                session.tablename = None\n                redirect(URL(request.application, \'default\', \'index\'))\n        if request.args[0] in ("edit","new"):\n            table.author.default = db(db.reviewer.userid == auth.user_id).select(db.reviewer.id).first().id\n            if not auth.has_membership(\'admin\'):\n                table.author.writable = False\n    viewname = tablelabel(session.tablename)\n    form = SQLFORM.grid(table, maxtextlength=15, csv=False,\\\n                        headers=dict([(session.tablename+\'_review.ref_id\',viewname),(session.tablename+\'_review.blurb\', T(\'Short Description\')),(session.tablename+\'_review.author\', T("Reviewer")),(session.tablename+\'_review.title\', T("Title")),(session.tablename+\'_review.subject\', T("Subject"))]), columns=dict([(session.tablename+\'_review.ref_id\',15),(session.tablename+\'_review.blurb\', 15),(session.tablename+\'_review.author\', 15),(session.tablename+\'_review.title\', 15),(session.tablename+\'_review.subject\', 15)]))\n    return dict(searchrevs=[], searchprofs=[],tag_form=\'\', form=form, message=T(\'Create %(tbl)s Review\', dict(tbl=viewname)))\n\n@auth.requires_membership(\'admin\')\ndef create_contributor():\n    addrev = lambda form: auth.add_membership(auth.id_group("reviewer"), int(form.vars.userid))\n    form = SQLFORM.grid(db.reviewer, oncreate=addrev, csv=False, headers=dict([(\'reviewer.screenname\',T(\'Display Name\')),(\'reviewer.userid\', T(\'User\')),(\'reviewer.city\', T("City")),(\'reviewer.state\', T("State")),(\'reviewer.country\', T("Country"))]), columns=dict([(\'reviewer.screenname\',15),(\'reviewer.userid\', 15),(\'reviewer.city\', 15),(\'reviewer.state\', 15),(\'reviewer.country\', 15)]))\n    return dict(searchrevs=[], searchprofs=[],tag_form=\'\', form=form, message=T(\'Manage Contributors\'))\n\ndef tablelabel(tablename):\n    viewname = \'\'\n    if tablename == \'place\':\n        viewname=T("Product")\n    elif tablename == \'region\':\n        viewname=T("Company")\n    elif tablename == \'event\':\n        viewname=T("Event")\n    else:\n        viewname = T("All")\n    return viewname\n\ndef photo_list(photos, limit, redirect=\'places\', photo_field=\'photo\', first=\'name\', secondary=None, random_disp=True, reverse=False):\n    pgraphics = []\n    if len(photos)>0: \n        if isinstance(photos, list): pics = photos\n        else: pics= photos.as_list()\n    else: return pgraphics\n    if reverse: pics.reverse()\n    if random_disp:\n        import random\n        last = pics.pop()\n        ct = range(0, limit-1)\n        ct.reverse()\n        for i in ct:\n            p = pics.pop(random.randint(0,i))\n            pgraphics.append([p[\'id\'], URL(r=request, f=\'download\', args=p[photo_field]), p[first]+\', \'+p[secondary] if secondary else p[first], redirect])\n            if len(pgraphics) == limit:\n                break\n        pgraphics.append([last[\'id\'], URL(r=request, f=\'download\', args=last[photo_field]), last[first]+\', \'+last[secondary] if secondary else last[first], redirect])\n    else:\n        for p in pics:\n            pgraphics.append([p[\'id\'], URL(r=request, f=\'download\', args=p[photo_field]), p[first]+\', \'+p[secondary] if secondary else p[first],redirect])\n            if len(pgraphics) == limit:\n                break\n    return pgraphics\n\nresponse._vars=response._caller(create_review)\n'
p6
sS'snapshot'
p7
(dp8
S'exception'
p9
(dp10
S'__getslice__'
p11
S"<method-wrapper '__getslice__' of exceptions.SyntaxError object at 0x0693EFB0>"
p12
sS'text'
p13
S'None'
p14
sS'__str__'
p15
S"<method-wrapper '__str__' of exceptions.SyntaxError object at 0x0693EFB0>"
p16
sS'__reduce__'
p17
S'<built-in method __reduce__ of exceptions.SyntaxError object at 0x0693EFB0>'
p18
sS'__dict__'
p19
S'{}'
p20
sS'__init__'
p21
S"<method-wrapper '__init__' of exceptions.SyntaxError object at 0x0693EFB0>"
p22
sS'__setattr__'
p23
S"<method-wrapper '__setattr__' of exceptions.SyntaxError object at 0x0693EFB0>"
p24
sS'__reduce_ex__'
p25
S'<built-in method __reduce_ex__ of exceptions.SyntaxError object at 0x0693EFB0>'
p26
sS'__new__'
p27
S'<built-in method __new__ of type object at 0x1E1CDBD0>'
p28
sS'__class__'
p29
S"<type 'exceptions.SyntaxError'>"
p30
sS'filename'
p31
S'None'
p32
sS'lineno'
p33
S'None'
p34
sS'msg'
p35
S"'widget cannot determine options of place_review.stars'"
p36
sS'__doc__'
p37
S"'Invalid syntax.'"
p38
sS'__getitem__'
p39
S"<method-wrapper '__getitem__' of exceptions.SyntaxError object at 0x0693EFB0>"
p40
sS'__setstate__'
p41
S'<built-in method __setstate__ of exceptions.SyntaxError object at 0x0693EFB0>'
p42
sS'__getattribute__'
p43
S"<method-wrapper '__getattribute__' of exceptions.SyntaxError object at 0x0693EFB0>"
p44
sS'print_file_and_line'
p45
S'None'
p46
sS'args'
p47
S"('widget cannot determine options of place_review.stars',)"
p48
sS'offset'
p49
S'None'
p50
sS'__delattr__'
p51
S"<method-wrapper '__delattr__' of exceptions.SyntaxError object at 0x0693EFB0>"
p52
sS'__repr__'
p53
S"<method-wrapper '__repr__' of exceptions.SyntaxError object at 0x0693EFB0>"
p54
sS'__hash__'
p55
S"<method-wrapper '__hash__' of exceptions.SyntaxError object at 0x0693EFB0>"
p56
ssS'evalue'
p57
S'widget cannot determine options of place_review.stars'
p58
sS'request'
p59
ccopy_reg
_reconstructor
p60
(cgluon.html
BEAUTIFY
p61
c__builtin__
object
p62
NtRp63
(dp64
S'attributes'
p65
(dp66
sS'components'
p67
(lp68
g60
(cgluon.html
TABLE
p69
g62
NtRp70
(dp71
g65
(dp72
S'level'
p73
I5
ssS'parent'
p74
Nsg67
(lp75
g60
(cgluon.html
TR
p76
g62
NtRp77
(dp78
g65
(dp79
sg74
g70
sg67
(lp80
g60
(cgluon.html
TD
p81
g62
NtRp82
(dp83
g65
(dp84
S'_style'
p85
S'font-weight:bold;'
p86
ssg74
g77
sg67
(lp87
S'ajax'
p88
asbag60
(g81
g62
NtRp89
(dp90
g65
(dp91
S'_valign'
p92
S'top'
p93
ssg74
g77
sg67
(lp94
S':'
asbag60
(g81
g62
NtRp95
(dp96
g65
(dp97
sg74
g77
sg67
(lp98
g60
(g61
g62
NtRp99
(dp100
g65
(dp101
g73
I5
ssg74
g95
sg67
(lp102
S'False'
p103
asbasbasbag60
(g76
g62
NtRp104
(dp105
g65
(dp106
sg74
g70
sg67
(lp107
g60
(g81
g62
NtRp108
(dp109
g65
(dp110
g85
g86
ssg74
g104
sg67
(lp111
S'application'
p112
asbag60
(g81
g62
NtRp113
(dp114
g65
(dp115
g92
g93
ssg74
g104
sg67
(lp116
S':'
asbag60
(g81
g62
NtRp117
(dp118
g65
(dp119
sg74
g104
sg67
(lp120
g60
(g61
g62
NtRp121
(dp122
g65
(dp123
g73
I5
ssg74
g117
sg67
(lp124
S'openopine'
p125
asbasbasbag60
(g76
g62
NtRp126
(dp127
g65
(dp128
sg74
g70
sg67
(lp129
g60
(g81
g62
NtRp130
(dp131
g65
(dp132
g85
g86
ssg74
g126
sg67
(lp133
g47
asbag60
(g81
g62
NtRp134
(dp135
g65
(dp136
g92
g93
ssg74
g126
sg67
(lp137
S':'
asbag60
(g81
g62
NtRp138
(dp139
g65
(dp140
sg74
g126
sg67
(lp141
g60
(g61
g62
NtRp142
(dp143
g65
(dp144
g73
I5
ssg74
g138
sg67
(lp145
g60
(g69
g62
NtRp146
(dp147
g65
(dp148
g73
I4
ssg74
Nsg67
(lp149
g60
(g76
g62
NtRp150
(dp151
g65
(dp152
sg74
g146
sg67
(lp153
g60
(g81
g62
NtRp154
(dp155
g65
(dp156
sg74
g150
sg67
(lp157
g60
(g61
g62
NtRp158
(dp159
g65
(dp160
g73
I4
ssg74
g154
sg67
(lp161
S'edit'
p162
asbasbasbag60
(g76
g62
NtRp163
(dp164
g65
(dp165
sg74
g146
sg67
(lp166
g60
(g81
g62
NtRp167
(dp168
g65
(dp169
sg74
g163
sg67
(lp170
g60
(g61
g62
NtRp171
(dp172
g65
(dp173
g73
I4
ssg74
g167
sg67
(lp174
S'place_review'
p175
asbasbasbag60
(g76
g62
NtRp176
(dp177
g65
(dp178
sg74
g146
sg67
(lp179
g60
(g81
g62
NtRp180
(dp181
g65
(dp182
sg74
g176
sg67
(lp183
g60
(g61
g62
NtRp184
(dp185
g65
(dp186
g73
I4
ssg74
g180
sg67
(lp187
S'1'
asbasbasbasbasbasbasbag60
(g76
g62
NtRp188
(dp189
g65
(dp190
sg74
g70
sg67
(lp191
g60
(g81
g62
NtRp192
(dp193
g65
(dp194
g85
g86
ssg74
g188
sg67
(lp195
S'body'
p196
asbag60
(g81
g62
NtRp197
(dp198
g65
(dp199
g92
g93
ssg74
g188
sg67
(lp200
S':'
asbag60
(g81
g62
NtRp201
(dp202
g65
(dp203
sg74
g188
sg67
(lp204
g60
(g61
g62
NtRp205
(dp206
g65
(dp207
g73
I5
ssg74
g201
sg67
(lp208
S'<cStringIO.StringO object at 0x072D3600>'
p209
asbasbasbag60
(g76
g62
NtRp210
(dp211
g65
(dp212
sg74
g70
sg67
(lp213
g60
(g81
g62
NtRp214
(dp215
g65
(dp216
g85
g86
ssg74
g210
sg67
(lp217
S'client'
p218
asbag60
(g81
g62
NtRp219
(dp220
g65
(dp221
g92
g93
ssg74
g210
sg67
(lp222
S':'
asbag60
(g81
g62
NtRp223
(dp224
g65
(dp225
sg74
g210
sg67
(lp226
g60
(g61
g62
NtRp227
(dp228
g65
(dp229
g73
I5
ssg74
g223
sg67
(lp230
S'127.0.0.1'
p231
asbasbasbag60
(g76
g62
NtRp232
(dp233
g65
(dp234
sg74
g70
sg67
(lp235
g60
(g81
g62
NtRp236
(dp237
g65
(dp238
g85
g86
ssg74
g232
sg67
(lp239
S'controller'
p240
asbag60
(g81
g62
NtRp241
(dp242
g65
(dp243
g92
g93
ssg74
g232
sg67
(lp244
S':'
asbag60
(g81
g62
NtRp245
(dp246
g65
(dp247
sg74
g232
sg67
(lp248
g60
(g61
g62
NtRp249
(dp250
g65
(dp251
g73
I5
ssg74
g245
sg67
(lp252
S'default'
p253
asbasbasbag60
(g76
g62
NtRp254
(dp255
g65
(dp256
sg74
g70
sg67
(lp257
g60
(g81
g62
NtRp258
(dp259
g65
(dp260
g85
g86
ssg74
g254
sg67
(lp261
S'cookies'
p262
asbag60
(g81
g62
NtRp263
(dp264
g65
(dp265
g92
g93
ssg74
g254
sg67
(lp266
S':'
asbag60
(g81
g62
NtRp267
(dp268
g65
(dp269
sg74
g254
sg67
(lp270
g60
(g61
g62
NtRp271
(dp272
g65
(dp273
g73
I5
ssg74
g267
sg67
(lp274
g60
(g69
g62
NtRp275
(dp276
g65
(dp277
g73
I4
ssg74
Nsg67
(lp278
g60
(g76
g62
NtRp279
(dp280
g65
(dp281
sg74
g275
sg67
(lp282
g60
(g81
g62
NtRp283
(dp284
g65
(dp285
g85
g86
ssg74
g279
sg67
(lp286
S'session_id_admin'
p287
asbag60
(g81
g62
NtRp288
(dp289
g65
(dp290
g92
g93
ssg74
g279
sg67
(lp291
S':'
asbag60
(g81
g62
NtRp292
(dp293
g65
(dp294
sg74
g279
sg67
(lp295
g60
(g61
g62
NtRp296
(dp297
g65
(dp298
g73
I4
ssg74
g292
sg67
(lp299
g60
(g69
g62
NtRp300
(dp301
g65
(dp302
g73
I3
ssg74
Nsg67
(lp303
g60
(g76
g62
NtRp304
(dp305
g65
(dp306
sg74
g300
sg67
(lp307
g60
(g81
g62
NtRp308
(dp309
g65
(dp310
g85
g86
ssg74
g304
sg67
(lp311
S'comment'
p312
asbag60
(g81
g62
NtRp313
(dp314
g65
(dp315
g92
g93
ssg74
g304
sg67
(lp316
S':'
asbag60
(g81
g62
NtRp317
(dp318
g65
(dp319
sg74
g304
sg67
(lp320
g60
(g61
g62
NtRp321
(dp322
g65
(dp323
g73
I3
ssg74
g317
sg67
(lp324
S''
asbasbasbag60
(g76
g62
NtRp325
(dp326
g65
(dp327
sg74
g300
sg67
(lp328
g60
(g81
g62
NtRp329
(dp330
g65
(dp331
g85
g86
ssg74
g325
sg67
(lp332
S'domain'
p333
asbag60
(g81
g62
NtRp334
(dp335
g65
(dp336
g92
g93
ssg74
g325
sg67
(lp337
S':'
asbag60
(g81
g62
NtRp338
(dp339
g65
(dp340
sg74
g325
sg67
(lp341
g60
(g61
g62
NtRp342
(dp343
g65
(dp344
g73
I3
ssg74
g338
sg67
(lp345
S''
asbasbasbag60
(g76
g62
NtRp346
(dp347
g65
(dp348
sg74
g300
sg67
(lp349
g60
(g81
g62
NtRp350
(dp351
g65
(dp352
g85
g86
ssg74
g346
sg67
(lp353
S'expires'
p354
asbag60
(g81
g62
NtRp355
(dp356
g65
(dp357
g92
g93
ssg74
g346
sg67
(lp358
S':'
asbag60
(g81
g62
NtRp359
(dp360
g65
(dp361
sg74
g346
sg67
(lp362
g60
(g61
g62
NtRp363
(dp364
g65
(dp365
g73
I3
ssg74
g359
sg67
(lp366
S''
asbasbasbag60
(g76
g62
NtRp367
(dp368
g65
(dp369
sg74
g300
sg67
(lp370
g60
(g81
g62
NtRp371
(dp372
g65
(dp373
g85
g86
ssg74
g367
sg67
(lp374
S'max-age'
p375
asbag60
(g81
g62
NtRp376
(dp377
g65
(dp378
g92
g93
ssg74
g367
sg67
(lp379
S':'
asbag60
(g81
g62
NtRp380
(dp381
g65
(dp382
sg74
g367
sg67
(lp383
g60
(g61
g62
NtRp384
(dp385
g65
(dp386
g73
I3
ssg74
g380
sg67
(lp387
S''
asbasbasbag60
(g76
g62
NtRp388
(dp389
g65
(dp390
sg74
g300
sg67
(lp391
g60
(g81
g62
NtRp392
(dp393
g65
(dp394
g85
g86
ssg74
g388
sg67
(lp395
S'path'
p396
asbag60
(g81
g62
NtRp397
(dp398
g65
(dp399
g92
g93
ssg74
g388
sg67
(lp400
S':'
asbag60
(g81
g62
NtRp401
(dp402
g65
(dp403
sg74
g388
sg67
(lp404
g60
(g61
g62
NtRp405
(dp406
g65
(dp407
g73
I3
ssg74
g401
sg67
(lp408
S''
asbasbasbag60
(g76
g62
NtRp409
(dp410
g65
(dp411
sg74
g300
sg67
(lp412
g60
(g81
g62
NtRp413
(dp414
g65
(dp415
g85
g86
ssg74
g409
sg67
(lp416
S'secure'
p417
asbag60
(g81
g62
NtRp418
(dp419
g65
(dp420
g92
g93
ssg74
g409
sg67
(lp421
S':'
asbag60
(g81
g62
NtRp422
(dp423
g65
(dp424
sg74
g409
sg67
(lp425
g60
(g61
g62
NtRp426
(dp427
g65
(dp428
g73
I3
ssg74
g422
sg67
(lp429
S''
asbasbasbag60
(g76
g62
NtRp430
(dp431
g65
(dp432
sg74
g300
sg67
(lp433
g60
(g81
g62
NtRp434
(dp435
g65
(dp436
g85
g86
ssg74
g430
sg67
(lp437
S'version'
p438
asbag60
(g81
g62
NtRp439
(dp440
g65
(dp441
g92
g93
ssg74
g430
sg67
(lp442
S':'
asbag60
(g81
g62
NtRp443
(dp444
g65
(dp445
sg74
g430
sg67
(lp446
g60
(g61
g62
NtRp447
(dp448
g65
(dp449
g73
I3
ssg74
g443
sg67
(lp450
S''
asbasbasbasbasbasbasbag60
(g76
g62
NtRp451
(dp452
g65
(dp453
sg74
g275
sg67
(lp454
g60
(g81
g62
NtRp455
(dp456
g65
(dp457
g85
g86
ssg74
g451
sg67
(lp458
S'session_id_init'
p459
asbag60
(g81
g62
NtRp460
(dp461
g65
(dp462
g92
g93
ssg74
g451
sg67
(lp463
S':'
asbag60
(g81
g62
NtRp464
(dp465
g65
(dp466
sg74
g451
sg67
(lp467
g60
(g61
g62
NtRp468
(dp469
g65
(dp470
g73
I4
ssg74
g464
sg67
(lp471
g60
(g69
g62
NtRp472
(dp473
g65
(dp474
g73
I3
ssg74
Nsg67
(lp475
g60
(g76
g62
NtRp476
(dp477
g65
(dp478
sg74
g472
sg67
(lp479
g60
(g81
g62
NtRp480
(dp481
g65
(dp482
g85
g86
ssg74
g476
sg67
(lp483
g312
asbag60
(g81
g62
NtRp484
(dp485
g65
(dp486
g92
g93
ssg74
g476
sg67
(lp487
S':'
asbag60
(g81
g62
NtRp488
(dp489
g65
(dp490
sg74
g476
sg67
(lp491
g60
(g61
g62
NtRp492
(dp493
g65
(dp494
g73
I3
ssg74
g488
sg67
(lp495
S''
asbasbasbag60
(g76
g62
NtRp496
(dp497
g65
(dp498
sg74
g472
sg67
(lp499
g60
(g81
g62
NtRp500
(dp501
g65
(dp502
g85
g86
ssg74
g496
sg67
(lp503
g333
asbag60
(g81
g62
NtRp504
(dp505
g65
(dp506
g92
g93
ssg74
g496
sg67
(lp507
S':'
asbag60
(g81
g62
NtRp508
(dp509
g65
(dp510
sg74
g496
sg67
(lp511
g60
(g61
g62
NtRp512
(dp513
g65
(dp514
g73
I3
ssg74
g508
sg67
(lp515
S''
asbasbasbag60
(g76
g62
NtRp516
(dp517
g65
(dp518
sg74
g472
sg67
(lp519
g60
(g81
g62
NtRp520
(dp521
g65
(dp522
g85
g86
ssg74
g516
sg67
(lp523
g354
asbag60
(g81
g62
NtRp524
(dp525
g65
(dp526
g92
g93
ssg74
g516
sg67
(lp527
S':'
asbag60
(g81
g62
NtRp528
(dp529
g65
(dp530
sg74
g516
sg67
(lp531
g60
(g61
g62
NtRp532
(dp533
g65
(dp534
g73
I3
ssg74
g528
sg67
(lp535
S''
asbasbasbag60
(g76
g62
NtRp536
(dp537
g65
(dp538
sg74
g472
sg67
(lp539
g60
(g81
g62
NtRp540
(dp541
g65
(dp542
g85
g86
ssg74
g536
sg67
(lp543
g375
asbag60
(g81
g62
NtRp544
(dp545
g65
(dp546
g92
g93
ssg74
g536
sg67
(lp547
S':'
asbag60
(g81
g62
NtRp548
(dp549
g65
(dp550
sg74
g536
sg67
(lp551
g60
(g61
g62
NtRp552
(dp553
g65
(dp554
g73
I3
ssg74
g548
sg67
(lp555
S''
asbasbasbag60
(g76
g62
NtRp556
(dp557
g65
(dp558
sg74
g472
sg67
(lp559
g60
(g81
g62
NtRp560
(dp561
g65
(dp562
g85
g86
ssg74
g556
sg67
(lp563
g396
asbag60
(g81
g62
NtRp564
(dp565
g65
(dp566
g92
g93
ssg74
g556
sg67
(lp567
S':'
asbag60
(g81
g62
NtRp568
(dp569
g65
(dp570
sg74
g556
sg67
(lp571
g60
(g61
g62
NtRp572
(dp573
g65
(dp574
g73
I3
ssg74
g568
sg67
(lp575
S''
asbasbasbag60
(g76
g62
NtRp576
(dp577
g65
(dp578
sg74
g472
sg67
(lp579
g60
(g81
g62
NtRp580
(dp581
g65
(dp582
g85
g86
ssg74
g576
sg67
(lp583
g417
asbag60
(g81
g62
NtRp584
(dp585
g65
(dp586
g92
g93
ssg74
g576
sg67
(lp587
S':'
asbag60
(g81
g62
NtRp588
(dp589
g65
(dp590
sg74
g576
sg67
(lp591
g60
(g61
g62
NtRp592
(dp593
g65
(dp594
g73
I3
ssg74
g588
sg67
(lp595
S''
asbasbasbag60
(g76
g62
NtRp596
(dp597
g65
(dp598
sg74
g472
sg67
(lp599
g60
(g81
g62
NtRp600
(dp601
g65
(dp602
g85
g86
ssg74
g596
sg67
(lp603
g438
asbag60
(g81
g62
NtRp604
(dp605
g65
(dp606
g92
g93
ssg74
g596
sg67
(lp607
S':'
asbag60
(g81
g62
NtRp608
(dp609
g65
(dp610
sg74
g596
sg67
(lp611
g60
(g61
g62
NtRp612
(dp613
g65
(dp614
g73
I3
ssg74
g608
sg67
(lp615
S''
asbasbasbasbasbasbasbag60
(g76
g62
NtRp616
(dp617
g65
(dp618
sg74
g275
sg67
(lp619
g60
(g81
g62
NtRp620
(dp621
g65
(dp622
g85
g86
ssg74
g616
sg67
(lp623
S'session_id_openopine'
p624
asbag60
(g81
g62
NtRp625
(dp626
g65
(dp627
g92
g93
ssg74
g616
sg67
(lp628
S':'
asbag60
(g81
g62
NtRp629
(dp630
g65
(dp631
sg74
g616
sg67
(lp632
g60
(g61
g62
NtRp633
(dp634
g65
(dp635
g73
I4
ssg74
g629
sg67
(lp636
g60
(g69
g62
NtRp637
(dp638
g65
(dp639
g73
I3
ssg74
Nsg67
(lp640
g60
(g76
g62
NtRp641
(dp642
g65
(dp643
sg74
g637
sg67
(lp644
g60
(g81
g62
NtRp645
(dp646
g65
(dp647
g85
g86
ssg74
g641
sg67
(lp648
g312
asbag60
(g81
g62
NtRp649
(dp650
g65
(dp651
g92
g93
ssg74
g641
sg67
(lp652
S':'
asbag60
(g81
g62
NtRp653
(dp654
g65
(dp655
sg74
g641
sg67
(lp656
g60
(g61
g62
NtRp657
(dp658
g65
(dp659
g73
I3
ssg74
g653
sg67
(lp660
S''
asbasbasbag60
(g76
g62
NtRp661
(dp662
g65
(dp663
sg74
g637
sg67
(lp664
g60
(g81
g62
NtRp665
(dp666
g65
(dp667
g85
g86
ssg74
g661
sg67
(lp668
g333
asbag60
(g81
g62
NtRp669
(dp670
g65
(dp671
g92
g93
ssg74
g661
sg67
(lp672
S':'
asbag60
(g81
g62
NtRp673
(dp674
g65
(dp675
sg74
g661
sg67
(lp676
g60
(g61
g62
NtRp677
(dp678
g65
(dp679
g73
I3
ssg74
g673
sg67
(lp680
S''
asbasbasbag60
(g76
g62
NtRp681
(dp682
g65
(dp683
sg74
g637
sg67
(lp684
g60
(g81
g62
NtRp685
(dp686
g65
(dp687
g85
g86
ssg74
g681
sg67
(lp688
g354
asbag60
(g81
g62
NtRp689
(dp690
g65
(dp691
g92
g93
ssg74
g681
sg67
(lp692
S':'
asbag60
(g81
g62
NtRp693
(dp694
g65
(dp695
sg74
g681
sg67
(lp696
g60
(g61
g62
NtRp697
(dp698
g65
(dp699
g73
I3
ssg74
g693
sg67
(lp700
S''
asbasbasbag60
(g76
g62
NtRp701
(dp702
g65
(dp703
sg74
g637
sg67
(lp704
g60
(g81
g62
NtRp705
(dp706
g65
(dp707
g85
g86
ssg74
g701
sg67
(lp708
g375
asbag60
(g81
g62
NtRp709
(dp710
g65
(dp711
g92
g93
ssg74
g701
sg67
(lp712
S':'
asbag60
(g81
g62
NtRp713
(dp714
g65
(dp715
sg74
g701
sg67
(lp716
g60
(g61
g62
NtRp717
(dp718
g65
(dp719
g73
I3
ssg74
g713
sg67
(lp720
S''
asbasbasbag60
(g76
g62
NtRp721
(dp722
g65
(dp723
sg74
g637
sg67
(lp724
g60
(g81
g62
NtRp725
(dp726
g65
(dp727
g85
g86
ssg74
g721
sg67
(lp728
g396
asbag60
(g81
g62
NtRp729
(dp730
g65
(dp731
g92
g93
ssg74
g721
sg67
(lp732
S':'
asbag60
(g81
g62
NtRp733
(dp734
g65
(dp735
sg74
g721
sg67
(lp736
g60
(g61
g62
NtRp737
(dp738
g65
(dp739
g73
I3
ssg74
g733
sg67
(lp740
S''
asbasbasbag60
(g76
g62
NtRp741
(dp742
g65
(dp743
sg74
g637
sg67
(lp744
g60
(g81
g62
NtRp745
(dp746
g65
(dp747
g85
g86
ssg74
g741
sg67
(lp748
g417
asbag60
(g81
g62
NtRp749
(dp750
g65
(dp751
g92
g93
ssg74
g741
sg67
(lp752
S':'
asbag60
(g81
g62
NtRp753
(dp754
g65
(dp755
sg74
g741
sg67
(lp756
g60
(g61
g62
NtRp757
(dp758
g65
(dp759
g73
I3
ssg74
g753
sg67
(lp760
S''
asbasbasbag60
(g76
g62
NtRp761
(dp762
g65
(dp763
sg74
g637
sg67
(lp764
g60
(g81
g62
NtRp765
(dp766
g65
(dp767
g85
g86
ssg74
g761
sg67
(lp768
g438
asbag60
(g81
g62
NtRp769
(dp770
g65
(dp771
g92
g93
ssg74
g761
sg67
(lp772
S':'
asbag60
(g81
g62
NtRp773
(dp774
g65
(dp775
sg74
g761
sg67
(lp776
g60
(g61
g62
NtRp777
(dp778
g65
(dp779
g73
I3
ssg74
g773
sg67
(lp780
S''
asbasbasbasbasbasbasbasbasbasbasbag60
(g76
g62
NtRp781
(dp782
g65
(dp783
sg74
g70
sg67
(lp784
g60
(g81
g62
NtRp785
(dp786
g65
(dp787
g85
g86
ssg74
g781
sg67
(lp788
S'env'
p789
asbag60
(g81
g62
NtRp790
(dp791
g65
(dp792
g92
g93
ssg74
g781
sg67
(lp793
S':'
asbag60
(g81
g62
NtRp794
(dp795
g65
(dp796
sg74
g781
sg67
(lp797
g60
(g61
g62
NtRp798
(dp799
g65
(dp800
g73
I5
ssg74
g794
sg67
(lp801
g60
(g69
g62
NtRp802
(dp803
g65
(dp804
g73
I4
ssg74
Nsg67
(lp805
g60
(g76
g62
NtRp806
(dp807
g65
(dp808
sg74
g802
sg67
(lp809
g60
(g81
g62
NtRp810
(dp811
g65
(dp812
g85
g86
ssg74
g806
sg67
(lp813
S'app_folders'
p814
asbag60
(g81
g62
NtRp815
(dp816
g65
(dp817
g92
g93
ssg74
g806
sg67
(lp818
S':'
asbag60
(g81
g62
NtRp819
(dp820
g65
(dp821
sg74
g806
sg67
(lp822
g60
(g61
g62
NtRp823
(dp824
g65
(dp825
g73
I4
ssg74
g819
sg67
(lp826
S"set(['C:\\\\Users\\\\Do It\\\\Desktop\\\\web2py_opine\\\\web2py\\\\applications\\\\init\\\\', 'C:\\\\Users\\\\Do It\\\\Desktop\\\\web2py_opine\\\\web2py\\\\applications\\\\admin\\\\', 'C:\\\\Users\\\\Do It\\\\Desktop\\\\web2py_opine\\\\web2py\\\\applications\\\\openopine\\\\'])"
p827
asbasbasbag60
(g76
g62
NtRp828
(dp829
g65
(dp830
sg74
g802
sg67
(lp831
g60
(g81
g62
NtRp832
(dp833
g65
(dp834
g85
g86
ssg74
g828
sg67
(lp835
S'applications_parent'
p836
asbag60
(g81
g62
NtRp837
(dp838
g65
(dp839
g92
g93
ssg74
g828
sg67
(lp840
S':'
asbag60
(g81
g62
NtRp841
(dp842
g65
(dp843
sg74
g828
sg67
(lp844
g60
(g61
g62
NtRp845
(dp846
g65
(dp847
g73
I4
ssg74
g841
sg67
(lp848
S'C:\\Users\\Do It\\Desktop\\web2py_opine\\web2py'
p849
asbasbasbag60
(g76
g62
NtRp850
(dp851
g65
(dp852
sg74
g802
sg67
(lp853
g60
(g81
g62
NtRp854
(dp855
g65
(dp856
g85
g86
ssg74
g850
sg67
(lp857
S'cmd_args'
p858
asbag60
(g81
g62
NtRp859
(dp860
g65
(dp861
g92
g93
ssg74
g850
sg67
(lp862
S':'
asbag60
(g81
g62
NtRp863
(dp864
g65
(dp865
sg74
g850
sg67
(lp866
g60
(g61
g62
NtRp867
(dp868
g65
(dp869
g73
I4
ssg74
g863
sg67
(lp870
g60
(g69
g62
NtRp871
(dp872
g65
(dp873
g73
I3
ssg74
Nsg67
(lp874
sbasbasbasbag60
(g76
g62
NtRp875
(dp876
g65
(dp877
sg74
g802
sg67
(lp878
g60
(g81
g62
NtRp879
(dp880
g65
(dp881
g85
g86
ssg74
g875
sg67
(lp882
S'cmd_options'
p883
asbag60
(g81
g62
NtRp884
(dp885
g65
(dp886
g92
g93
ssg74
g875
sg67
(lp887
S':'
asbag60
(g81
g62
NtRp888
(dp889
g65
(dp890
sg74
g875
sg67
(lp891
g60
(g61
g62
NtRp892
(dp893
g65
(dp894
g73
I4
ssg74
g888
sg67
(lp895
S"<Values at 0x2b82260: {'verbose': False, 'ip': '127.0.0.1', 'shutdown_timeout': 5, 'taskbar': False, 'nocron': False, 'pid_filename': 'httpserver.pid', 'maxthreads': None, 'softcron': False, 'server_name': 'Double', 'bpython': False, 'nogui': False, 'port': 8000, 'extcron': False, 'debuglevel': 30, 'test': None, 'folder': 'C:\\\\Users\\\\Do It\\\\Desktop\\\\web2py_opine\\\\web2py', 'config': '', 'import_models': False, 'winservice': '', 'shell': None, 'run': '', 'log_filename': 'httpserver.log', 'args': [''], 'ssl_ca_certificate': None, 'scheduler': None, 'profiler_filename': None, 'ssl_private_key': '', 'password': '<ask>', 'request_queue_size': 5, 'ssl_certificate': '', 'cronjob': False, 'plain': False, 'quiet': False, 'interfaces': None, 'minthreads': None, 'timeout': 10, 'numthreads': None, 'nobanner': False}>"
p896
asbasbasbag60
(g76
g62
NtRp897
(dp898
g65
(dp899
sg74
g802
sg67
(lp900
g60
(g81
g62
NtRp901
(dp902
g65
(dp903
g85
g86
ssg74
g897
sg67
(lp904
S'db_sessions'
p905
asbag60
(g81
g62
NtRp906
(dp907
g65
(dp908
g92
g93
ssg74
g897
sg67
(lp909
S':'
asbag60
(g81
g62
NtRp910
(dp911
g65
(dp912
sg74
g897
sg67
(lp913
g60
(g61
g62
NtRp914
(dp915
g65
(dp916
g73
I4
ssg74
g910
sg67
(lp917
S'set([])'
p918
asbasbasbag60
(g76
g62
NtRp919
(dp920
g65
(dp921
sg74
g802
sg67
(lp922
g60
(g81
g62
NtRp923
(dp924
g65
(dp925
g85
g86
ssg74
g919
sg67
(lp926
S'debugging'
p927
asbag60
(g81
g62
NtRp928
(dp929
g65
(dp930
g92
g93
ssg74
g919
sg67
(lp931
S':'
asbag60
(g81
g62
NtRp932
(dp933
g65
(dp934
sg74
g919
sg67
(lp935
g60
(g61
g62
NtRp936
(dp937
g65
(dp938
g73
I4
ssg74
g932
sg67
(lp939
g103
asbasbasbag60
(g76
g62
NtRp940
(dp941
g65
(dp942
sg74
g802
sg67
(lp943
g60
(g81
g62
NtRp944
(dp945
g65
(dp946
g85
g86
ssg74
g940
sg67
(lp947
S'gluon_parent'
p948
asbag60
(g81
g62
NtRp949
(dp950
g65
(dp951
g92
g93
ssg74
g940
sg67
(lp952
S':'
asbag60
(g81
g62
NtRp953
(dp954
g65
(dp955
sg74
g940
sg67
(lp956
g60
(g61
g62
NtRp957
(dp958
g65
(dp959
g73
I4
ssg74
g953
sg67
(lp960
S'C:\\Users\\Do It\\Desktop\\web2py_opine\\web2py'
p961
asbasbasbag60
(g76
g62
NtRp962
(dp963
g65
(dp964
sg74
g802
sg67
(lp965
g60
(g81
g62
NtRp966
(dp967
g65
(dp968
g85
g86
ssg74
g962
sg67
(lp969
S'http_accept'
p970
asbag60
(g81
g62
NtRp971
(dp972
g65
(dp973
g92
g93
ssg74
g962
sg67
(lp974
S':'
asbag60
(g81
g62
NtRp975
(dp976
g65
(dp977
sg74
g962
sg67
(lp978
g60
(g61
g62
NtRp979
(dp980
g65
(dp981
g73
I4
ssg74
g975
sg67
(lp982
S'text/html,application/xhtml+xml,application/xml;q=0.9,*/*;q=0.8'
p983
asbasbasbag60
(g76
g62
NtRp984
(dp985
g65
(dp986
sg74
g802
sg67
(lp987
g60
(g81
g62
NtRp988
(dp989
g65
(dp990
g85
g86
ssg74
g984
sg67
(lp991
S'http_accept_charset'
p992
asbag60
(g81
g62
NtRp993
(dp994
g65
(dp995
g92
g93
ssg74
g984
sg67
(lp996
S':'
asbag60
(g81
g62
NtRp997
(dp998
g65
(dp999
sg74
g984
sg67
(lp1000
g60
(g61
g62
NtRp1001
(dp1002
g65
(dp1003
g73
I4
ssg74
g997
sg67
(lp1004
S'ISO-8859-1,utf-8;q=0.7,*;q=0.7'
p1005
asbasbasbag60
(g76
g62
NtRp1006
(dp1007
g65
(dp1008
sg74
g802
sg67
(lp1009
g60
(g81
g62
NtRp1010
(dp1011
g65
(dp1012
g85
g86
ssg74
g1006
sg67
(lp1013
S'http_accept_encoding'
p1014
asbag60
(g81
g62
NtRp1015
(dp1016
g65
(dp1017
g92
g93
ssg74
g1006
sg67
(lp1018
S':'
asbag60
(g81
g62
NtRp1019
(dp1020
g65
(dp1021
sg74
g1006
sg67
(lp1022
g60
(g61
g62
NtRp1023
(dp1024
g65
(dp1025
g73
I4
ssg74
g1019
sg67
(lp1026
S'gzip, deflate'
p1027
asbasbasbag60
(g76
g62
NtRp1028
(dp1029
g65
(dp1030
sg74
g802
sg67
(lp1031
g60
(g81
g62
NtRp1032
(dp1033
g65
(dp1034
g85
g86
ssg74
g1028
sg67
(lp1035
S'http_accept_language'
p1036
asbag60
(g81
g62
NtRp1037
(dp1038
g65
(dp1039
g92
g93
ssg74
g1028
sg67
(lp1040
S':'
asbag60
(g81
g62
NtRp1041
(dp1042
g65
(dp1043
sg74
g1028
sg67
(lp1044
g60
(g61
g62
NtRp1045
(dp1046
g65
(dp1047
g73
I4
ssg74
g1041
sg67
(lp1048
S'en-us,en;q=0.5'
p1049
asbasbasbag60
(g76
g62
NtRp1050
(dp1051
g65
(dp1052
sg74
g802
sg67
(lp1053
g60
(g81
g62
NtRp1054
(dp1055
g65
(dp1056
g85
g86
ssg74
g1050
sg67
(lp1057
S'http_connection'
p1058
asbag60
(g81
g62
NtRp1059
(dp1060
g65
(dp1061
g92
g93
ssg74
g1050
sg67
(lp1062
S':'
asbag60
(g81
g62
NtRp1063
(dp1064
g65
(dp1065
sg74
g1050
sg67
(lp1066
g60
(g61
g62
NtRp1067
(dp1068
g65
(dp1069
g73
I4
ssg74
g1063
sg67
(lp1070
S'keep-alive'
p1071
asbasbasbag60
(g76
g62
NtRp1072
(dp1073
g65
(dp1074
sg74
g802
sg67
(lp1075
g60
(g81
g62
NtRp1076
(dp1077
g65
(dp1078
g85
g86
ssg74
g1072
sg67
(lp1079
S'http_cookie'
p1080
asbag60
(g81
g62
NtRp1081
(dp1082
g65
(dp1083
g92
g93
ssg74
g1072
sg67
(lp1084
S':'
asbag60
(g81
g62
NtRp1085
(dp1086
g65
(dp1087
sg74
g1072
sg67
(lp1088
g60
(g61
g62
NtRp1089
(dp1090
g65
(dp1091
g73
I4
ssg74
g1085
sg67
(lp1092
S'session_id_init=127.0.0.1-2d10a858-8feb-475a-9405-95a5d24ad444; session_id_admin=127.0.0.1-9f038b59-41c0-486b-b848-833bf2afd101; session_id_openopine=127.0.0.1-c23be48a-ee51-4c8b-a5be-0c35c319ee44'
p1093
asbasbasbag60
(g76
g62
NtRp1094
(dp1095
g65
(dp1096
sg74
g802
sg67
(lp1097
g60
(g81
g62
NtRp1098
(dp1099
g65
(dp1100
g85
g86
ssg74
g1094
sg67
(lp1101
S'http_host'
p1102
asbag60
(g81
g62
NtRp1103
(dp1104
g65
(dp1105
g92
g93
ssg74
g1094
sg67
(lp1106
S':'
asbag60
(g81
g62
NtRp1107
(dp1108
g65
(dp1109
sg74
g1094
sg67
(lp1110
g60
(g61
g62
NtRp1111
(dp1112
g65
(dp1113
g73
I4
ssg74
g1107
sg67
(lp1114
S'127.0.0.1:8000'
p1115
asbasbasbag60
(g76
g62
NtRp1116
(dp1117
g65
(dp1118
sg74
g802
sg67
(lp1119
g60
(g81
g62
NtRp1120
(dp1121
g65
(dp1122
g85
g86
ssg74
g1116
sg67
(lp1123
S'http_referer'
p1124
asbag60
(g81
g62
NtRp1125
(dp1126
g65
(dp1127
g92
g93
ssg74
g1116
sg67
(lp1128
S':'
asbag60
(g81
g62
NtRp1129
(dp1130
g65
(dp1131
sg74
g1116
sg67
(lp1132
g60
(g61
g62
NtRp1133
(dp1134
g65
(dp1135
g73
I4
ssg74
g1129
sg67
(lp1136
S'http://127.0.0.1:8000/openopine/default/create_review?tbl=place'
p1137
asbasbasbag60
(g76
g62
NtRp1138
(dp1139
g65
(dp1140
sg74
g802
sg67
(lp1141
g60
(g81
g62
NtRp1142
(dp1143
g65
(dp1144
g85
g86
ssg74
g1138
sg67
(lp1145
S'http_user_agent'
p1146
asbag60
(g81
g62
NtRp1147
(dp1148
g65
(dp1149
g92
g93
ssg74
g1138
sg67
(lp1150
S':'
asbag60
(g81
g62
NtRp1151
(dp1152
g65
(dp1153
sg74
g1138
sg67
(lp1154
g60
(g61
g62
NtRp1155
(dp1156
g65
(dp1157
g73
I4
ssg74
g1151
sg67
(lp1158
S'Mozilla/5.0 (Windows NT 6.1; WOW64; rv:8.0) Gecko/20100101 Firefox/8.0'
p1159
asbasbasbag60
(g76
g62
NtRp1160
(dp1161
g65
(dp1162
sg74
g802
sg67
(lp1163
g60
(g81
g62
NtRp1164
(dp1165
g65
(dp1166
g85
g86
ssg74
g1160
sg67
(lp1167
S'is_jython'
p1168
asbag60
(g81
g62
NtRp1169
(dp1170
g65
(dp1171
g92
g93
ssg74
g1160
sg67
(lp1172
S':'
asbag60
(g81
g62
NtRp1173
(dp1174
g65
(dp1175
sg74
g1160
sg67
(lp1176
g60
(g61
g62
NtRp1177
(dp1178
g65
(dp1179
g73
I4
ssg74
g1173
sg67
(lp1180
g103
asbasbasbag60
(g76
g62
NtRp1181
(dp1182
g65
(dp1183
sg74
g802
sg67
(lp1184
g60
(g81
g62
NtRp1185
(dp1186
g65
(dp1187
g85
g86
ssg74
g1181
sg67
(lp1188
S'path_info'
p1189
asbag60
(g81
g62
NtRp1190
(dp1191
g65
(dp1192
g92
g93
ssg74
g1181
sg67
(lp1193
S':'
asbag60
(g81
g62
NtRp1194
(dp1195
g65
(dp1196
sg74
g1181
sg67
(lp1197
g60
(g61
g62
NtRp1198
(dp1199
g65
(dp1200
g73
I4
ssg74
g1194
sg67
(lp1201
S'/openopine/default/create_review/edit/place_review/1'
p1202
asbasbasbag60
(g76
g62
NtRp1203
(dp1204
g65
(dp1205
sg74
g802
sg67
(lp1206
g60
(g81
g62
NtRp1207
(dp1208
g65
(dp1209
g85
g86
ssg74
g1203
sg67
(lp1210
S'query_string'
p1211
asbag60
(g81
g62
NtRp1212
(dp1213
g65
(dp1214
g92
g93
ssg74
g1203
sg67
(lp1215
S':'
asbag60
(g81
g62
NtRp1216
(dp1217
g65
(dp1218
sg74
g1203
sg67
(lp1219
g60
(g61
g62
NtRp1220
(dp1221
g65
(dp1222
g73
I4
ssg74
g1216
sg67
(lp1223
S'_signature=6e8d2fb1db3d270d92986ddc4c05e249f8d72332'
p1224
asbasbasbag60
(g76
g62
NtRp1225
(dp1226
g65
(dp1227
sg74
g802
sg67
(lp1228
g60
(g81
g62
NtRp1229
(dp1230
g65
(dp1231
g85
g86
ssg74
g1225
sg67
(lp1232
S'remote_addr'
p1233
asbag60
(g81
g62
NtRp1234
(dp1235
g65
(dp1236
g92
g93
ssg74
g1225
sg67
(lp1237
S':'
asbag60
(g81
g62
NtRp1238
(dp1239
g65
(dp1240
sg74
g1225
sg67
(lp1241
g60
(g61
g62
NtRp1242
(dp1243
g65
(dp1244
g73
I4
ssg74
g1238
sg67
(lp1245
g231
asbasbasbag60
(g76
g62
NtRp1246
(dp1247
g65
(dp1248
sg74
g802
sg67
(lp1249
g60
(g81
g62
NtRp1250
(dp1251
g65
(dp1252
g85
g86
ssg74
g1246
sg67
(lp1253
S'remote_port'
p1254
asbag60
(g81
g62
NtRp1255
(dp1256
g65
(dp1257
g92
g93
ssg74
g1246
sg67
(lp1258
S':'
asbag60
(g81
g62
NtRp1259
(dp1260
g65
(dp1261
sg74
g1246
sg67
(lp1262
g60
(g61
g62
NtRp1263
(dp1264
g65
(dp1265
g73
I4
ssg74
g1259
sg67
(lp1266
S'49655'
p1267
asbasbasbag60
(g76
g62
NtRp1268
(dp1269
g65
(dp1270
sg74
g802
sg67
(lp1271
g60
(g81
g62
NtRp1272
(dp1273
g65
(dp1274
g85
g86
ssg74
g1268
sg67
(lp1275
S'request_method'
p1276
asbag60
(g81
g62
NtRp1277
(dp1278
g65
(dp1279
g92
g93
ssg74
g1268
sg67
(lp1280
S':'
asbag60
(g81
g62
NtRp1281
(dp1282
g65
(dp1283
sg74
g1268
sg67
(lp1284
g60
(g61
g62
NtRp1285
(dp1286
g65
(dp1287
g73
I4
ssg74
g1281
sg67
(lp1288
S'GET'
p1289
asbasbasbag60
(g76
g62
NtRp1290
(dp1291
g65
(dp1292
sg74
g802
sg67
(lp1293
g60
(g81
g62
NtRp1294
(dp1295
g65
(dp1296
g85
g86
ssg74
g1290
sg67
(lp1297
S'script_name'
p1298
asbag60
(g81
g62
NtRp1299
(dp1300
g65
(dp1301
g92
g93
ssg74
g1290
sg67
(lp1302
S':'
asbag60
(g81
g62
NtRp1303
(dp1304
g65
(dp1305
sg74
g1290
sg67
(lp1306
g60
(g61
g62
NtRp1307
(dp1308
g65
(dp1309
g73
I4
ssg74
g1303
sg67
(lp1310
S''
asbasbasbag60
(g76
g62
NtRp1311
(dp1312
g65
(dp1313
sg74
g802
sg67
(lp1314
g60
(g81
g62
NtRp1315
(dp1316
g65
(dp1317
g85
g86
ssg74
g1311
sg67
(lp1318
S'server_name'
p1319
asbag60
(g81
g62
NtRp1320
(dp1321
g65
(dp1322
g92
g93
ssg74
g1311
sg67
(lp1323
S':'
asbag60
(g81
g62
NtRp1324
(dp1325
g65
(dp1326
sg74
g1311
sg67
(lp1327
g60
(g61
g62
NtRp1328
(dp1329
g65
(dp1330
g73
I4
ssg74
g1324
sg67
(lp1331
S'Double'
p1332
asbasbasbag60
(g76
g62
NtRp1333
(dp1334
g65
(dp1335
sg74
g802
sg67
(lp1336
g60
(g81
g62
NtRp1337
(dp1338
g65
(dp1339
g85
g86
ssg74
g1333
sg67
(lp1340
S'server_port'
p1341
asbag60
(g81
g62
NtRp1342
(dp1343
g65
(dp1344
g92
g93
ssg74
g1333
sg67
(lp1345
S':'
asbag60
(g81
g62
NtRp1346
(dp1347
g65
(dp1348
sg74
g1333
sg67
(lp1349
g60
(g61
g62
NtRp1350
(dp1351
g65
(dp1352
g73
I4
ssg74
g1346
sg67
(lp1353
S'8000'
p1354
asbasbasbag60
(g76
g62
NtRp1355
(dp1356
g65
(dp1357
sg74
g802
sg67
(lp1358
g60
(g81
g62
NtRp1359
(dp1360
g65
(dp1361
g85
g86
ssg74
g1355
sg67
(lp1362
S'server_protocol'
p1363
asbag60
(g81
g62
NtRp1364
(dp1365
g65
(dp1366
g92
g93
ssg74
g1355
sg67
(lp1367
S':'
asbag60
(g81
g62
NtRp1368
(dp1369
g65
(dp1370
sg74
g1355
sg67
(lp1371
g60
(g61
g62
NtRp1372
(dp1373
g65
(dp1374
g73
I4
ssg74
g1368
sg67
(lp1375
S'HTTP/1.1'
p1376
asbasbasbag60
(g76
g62
NtRp1377
(dp1378
g65
(dp1379
sg74
g802
sg67
(lp1380
g60
(g81
g62
NtRp1381
(dp1382
g65
(dp1383
g85
g86
ssg74
g1377
sg67
(lp1384
S'server_software'
p1385
asbag60
(g81
g62
NtRp1386
(dp1387
g65
(dp1388
g92
g93
ssg74
g1377
sg67
(lp1389
S':'
asbag60
(g81
g62
NtRp1390
(dp1391
g65
(dp1392
sg74
g1377
sg67
(lp1393
g60
(g61
g62
NtRp1394
(dp1395
g65
(dp1396
g73
I4
ssg74
g1390
sg67
(lp1397
S'Rocket 1.2.4'
p1398
asbasbasbag60
(g76
g62
NtRp1399
(dp1400
g65
(dp1401
sg74
g802
sg67
(lp1402
g60
(g81
g62
NtRp1403
(dp1404
g65
(dp1405
g85
g86
ssg74
g1399
sg67
(lp1406
S'web2py_crontype'
p1407
asbag60
(g81
g62
NtRp1408
(dp1409
g65
(dp1410
g92
g93
ssg74
g1399
sg67
(lp1411
S':'
asbag60
(g81
g62
NtRp1412
(dp1413
g65
(dp1414
sg74
g1399
sg67
(lp1415
g60
(g61
g62
NtRp1416
(dp1417
g65
(dp1418
g73
I4
ssg74
g1412
sg67
(lp1419
S'hard'
p1420
asbasbasbag60
(g76
g62
NtRp1421
(dp1422
g65
(dp1423
sg74
g802
sg67
(lp1424
g60
(g81
g62
NtRp1425
(dp1426
g65
(dp1427
g85
g86
ssg74
g1421
sg67
(lp1428
S'web2py_path'
p1429
asbag60
(g81
g62
NtRp1430
(dp1431
g65
(dp1432
g92
g93
ssg74
g1421
sg67
(lp1433
S':'
asbag60
(g81
g62
NtRp1434
(dp1435
g65
(dp1436
sg74
g1421
sg67
(lp1437
g60
(g61
g62
NtRp1438
(dp1439
g65
(dp1440
g73
I4
ssg74
g1434
sg67
(lp1441
g849
asbasbasbag60
(g76
g62
NtRp1442
(dp1443
g65
(dp1444
sg74
g802
sg67
(lp1445
g60
(g81
g62
NtRp1446
(dp1447
g65
(dp1448
g85
g86
ssg74
g1442
sg67
(lp1449
S'web2py_version'
p1450
asbag60
(g81
g62
NtRp1451
(dp1452
g65
(dp1453
g92
g93
ssg74
g1442
sg67
(lp1454
S':'
asbag60
(g81
g62
NtRp1455
(dp1456
g65
(dp1457
sg74
g1442
sg67
(lp1458
g60
(g61
g62
NtRp1459
(dp1460
g65
(dp1461
g73
I4
ssg74
g1455
sg67
(lp1462
g60
(g69
g62
NtRp1463
(dp1464
g65
(dp1465
g73
I3
ssg74
Nsg67
(lp1466
g60
(g76
g62
NtRp1467
(dp1468
g65
(dp1469
sg74
g1463
sg67
(lp1470
g60
(g81
g62
NtRp1471
(dp1472
g65
(dp1473
sg74
g1467
sg67
(lp1474
g60
(g61
g62
NtRp1475
(dp1476
g65
(dp1477
g73
I3
ssg74
g1471
sg67
(lp1478
S'1'
asbasbasbag60
(g76
g62
NtRp1479
(dp1480
g65
(dp1481
sg74
g1463
sg67
(lp1482
g60
(g81
g62
NtRp1483
(dp1484
g65
(dp1485
sg74
g1479
sg67
(lp1486
g60
(g61
g62
NtRp1487
(dp1488
g65
(dp1489
g73
I3
ssg74
g1483
sg67
(lp1490
S'99'
p1491
asbasbasbag60
(g76
g62
NtRp1492
(dp1493
g65
(dp1494
sg74
g1463
sg67
(lp1495
g60
(g81
g62
NtRp1496
(dp1497
g65
(dp1498
sg74
g1492
sg67
(lp1499
g60
(g61
g62
NtRp1500
(dp1501
g65
(dp1502
g73
I3
ssg74
g1496
sg67
(lp1503
S'2'
asbasbasbag60
(g76
g62
NtRp1504
(dp1505
g65
(dp1506
sg74
g1463
sg67
(lp1507
g60
(g81
g62
NtRp1508
(dp1509
g65
(dp1510
sg74
g1504
sg67
(lp1511
g60
(g61
g62
NtRp1512
(dp1513
g65
(dp1514
g73
I3
ssg74
g1508
sg67
(lp1515
S'datetime.datetime(2011, 9, 26, 6, 55, 33)'
p1516
asbasbasbag60
(g76
g62
NtRp1517
(dp1518
g65
(dp1519
sg74
g1463
sg67
(lp1520
g60
(g81
g62
NtRp1521
(dp1522
g65
(dp1523
sg74
g1517
sg67
(lp1524
g60
(g61
g62
NtRp1525
(dp1526
g65
(dp1527
g73
I3
ssg74
g1521
sg67
(lp1528
S'stable'
p1529
asbasbasbasbasbasbasbag60
(g76
g62
NtRp1530
(dp1531
g65
(dp1532
sg74
g802
sg67
(lp1533
g60
(g81
g62
NtRp1534
(dp1535
g65
(dp1536
g85
g86
ssg74
g1530
sg67
(lp1537
S'wsgi_errors'
p1538
asbag60
(g81
g62
NtRp1539
(dp1540
g65
(dp1541
g92
g93
ssg74
g1530
sg67
(lp1542
S':'
asbag60
(g81
g62
NtRp1543
(dp1544
g65
(dp1545
sg74
g1530
sg67
(lp1546
g60
(g61
g62
NtRp1547
(dp1548
g65
(dp1549
g73
I4
ssg74
g1543
sg67
(lp1550
S"<open file '<stderr>', mode 'w' at 0x01CD00B0>"
p1551
asbasbasbag60
(g76
g62
NtRp1552
(dp1553
g65
(dp1554
sg74
g802
sg67
(lp1555
g60
(g81
g62
NtRp1556
(dp1557
g65
(dp1558
g85
g86
ssg74
g1552
sg67
(lp1559
S'wsgi_file_wrapper'
p1560
asbag60
(g81
g62
NtRp1561
(dp1562
g65
(dp1563
g92
g93
ssg74
g1552
sg67
(lp1564
S':'
asbag60
(g81
g62
NtRp1565
(dp1566
g65
(dp1567
sg74
g1552
sg67
(lp1568
g60
(g61
g62
NtRp1569
(dp1570
g65
(dp1571
g73
I4
ssg74
g1565
sg67
(lp1572
S'<class wsgiref.util.FileWrapper at 0x02AAAC30>'
p1573
asbasbasbag60
(g76
g62
NtRp1574
(dp1575
g65
(dp1576
sg74
g802
sg67
(lp1577
g60
(g81
g62
NtRp1578
(dp1579
g65
(dp1580
g85
g86
ssg74
g1574
sg67
(lp1581
S'wsgi_input'
p1582
asbag60
(g81
g62
NtRp1583
(dp1584
g65
(dp1585
g92
g93
ssg74
g1574
sg67
(lp1586
S':'
asbag60
(g81
g62
NtRp1587
(dp1588
g65
(dp1589
sg74
g1574
sg67
(lp1590
g60
(g61
g62
NtRp1591
(dp1592
g65
(dp1593
g73
I4
ssg74
g1587
sg67
(lp1594
S'<socket._fileobject object at 0x0358BB70>'
p1595
asbasbasbag60
(g76
g62
NtRp1596
(dp1597
g65
(dp1598
sg74
g802
sg67
(lp1599
g60
(g81
g62
NtRp1600
(dp1601
g65
(dp1602
g85
g86
ssg74
g1596
sg67
(lp1603
S'wsgi_multiprocess'
p1604
asbag60
(g81
g62
NtRp1605
(dp1606
g65
(dp1607
g92
g93
ssg74
g1596
sg67
(lp1608
S':'
asbag60
(g81
g62
NtRp1609
(dp1610
g65
(dp1611
sg74
g1596
sg67
(lp1612
g60
(g61
g62
NtRp1613
(dp1614
g65
(dp1615
g73
I4
ssg74
g1609
sg67
(lp1616
g103
asbasbasbag60
(g76
g62
NtRp1617
(dp1618
g65
(dp1619
sg74
g802
sg67
(lp1620
g60
(g81
g62
NtRp1621
(dp1622
g65
(dp1623
g85
g86
ssg74
g1617
sg67
(lp1624
S'wsgi_multithread'
p1625
asbag60
(g81
g62
NtRp1626
(dp1627
g65
(dp1628
g92
g93
ssg74
g1617
sg67
(lp1629
S':'
asbag60
(g81
g62
NtRp1630
(dp1631
g65
(dp1632
sg74
g1617
sg67
(lp1633
g60
(g61
g62
NtRp1634
(dp1635
g65
(dp1636
g73
I4
ssg74
g1630
sg67
(lp1637
S'True'
p1638
asbasbasbag60
(g76
g62
NtRp1639
(dp1640
g65
(dp1641
sg74
g802
sg67
(lp1642
g60
(g81
g62
NtRp1643
(dp1644
g65
(dp1645
g85
g86
ssg74
g1639
sg67
(lp1646
S'wsgi_run_once'
p1647
asbag60
(g81
g62
NtRp1648
(dp1649
g65
(dp1650
g92
g93
ssg74
g1639
sg67
(lp1651
S':'
asbag60
(g81
g62
NtRp1652
(dp1653
g65
(dp1654
sg74
g1639
sg67
(lp1655
g60
(g61
g62
NtRp1656
(dp1657
g65
(dp1658
g73
I4
ssg74
g1652
sg67
(lp1659
g103
asbasbasbag60
(g76
g62
NtRp1660
(dp1661
g65
(dp1662
sg74
g802
sg67
(lp1663
g60
(g81
g62
NtRp1664
(dp1665
g65
(dp1666
g85
g86
ssg74
g1660
sg67
(lp1667
S'wsgi_url_scheme'
p1668
asbag60
(g81
g62
NtRp1669
(dp1670
g65
(dp1671
g92
g93
ssg74
g1660
sg67
(lp1672
S':'
asbag60
(g81
g62
NtRp1673
(dp1674
g65
(dp1675
sg74
g1660
sg67
(lp1676
g60
(g61
g62
NtRp1677
(dp1678
g65
(dp1679
g73
I4
ssg74
g1673
sg67
(lp1680
S'http'
p1681
asbasbasbag60
(g76
g62
NtRp1682
(dp1683
g65
(dp1684
sg74
g802
sg67
(lp1685
g60
(g81
g62
NtRp1686
(dp1687
g65
(dp1688
g85
g86
ssg74
g1682
sg67
(lp1689
S'wsgi_version'
p1690
asbag60
(g81
g62
NtRp1691
(dp1692
g65
(dp1693
g92
g93
ssg74
g1682
sg67
(lp1694
S':'
asbag60
(g81
g62
NtRp1695
(dp1696
g65
(dp1697
sg74
g1682
sg67
(lp1698
g60
(g61
g62
NtRp1699
(dp1700
g65
(dp1701
g73
I4
ssg74
g1695
sg67
(lp1702
g60
(g69
g62
NtRp1703
(dp1704
g65
(dp1705
g73
I3
ssg74
Nsg67
(lp1706
g60
(g76
g62
NtRp1707
(dp1708
g65
(dp1709
sg74
g1703
sg67
(lp1710
g60
(g81
g62
NtRp1711
(dp1712
g65
(dp1713
sg74
g1707
sg67
(lp1714
g60
(g61
g62
NtRp1715
(dp1716
g65
(dp1717
g73
I3
ssg74
g1711
sg67
(lp1718
S'1'
asbasbasbag60
(g76
g62
NtRp1719
(dp1720
g65
(dp1721
sg74
g1703
sg67
(lp1722
g60
(g81
g62
NtRp1723
(dp1724
g65
(dp1725
sg74
g1719
sg67
(lp1726
g60
(g61
g62
NtRp1727
(dp1728
g65
(dp1729
g73
I3
ssg74
g1723
sg67
(lp1730
S'0'
asbasbasbasbasbasbasbasbasbasbasbag60
(g76
g62
NtRp1731
(dp1732
g65
(dp1733
sg74
g70
sg67
(lp1734
g60
(g81
g62
NtRp1735
(dp1736
g65
(dp1737
g85
g86
ssg74
g1731
sg67
(lp1738
S'extension'
p1739
asbag60
(g81
g62
NtRp1740
(dp1741
g65
(dp1742
g92
g93
ssg74
g1731
sg67
(lp1743
S':'
asbag60
(g81
g62
NtRp1744
(dp1745
g65
(dp1746
sg74
g1731
sg67
(lp1747
g60
(g61
g62
NtRp1748
(dp1749
g65
(dp1750
g73
I5
ssg74
g1744
sg67
(lp1751
S'html'
p1752
asbasbasbag60
(g76
g62
NtRp1753
(dp1754
g65
(dp1755
sg74
g70
sg67
(lp1756
g60
(g81
g62
NtRp1757
(dp1758
g65
(dp1759
g85
g86
ssg74
g1753
sg67
(lp1760
S'folder'
p1761
asbag60
(g81
g62
NtRp1762
(dp1763
g65
(dp1764
g92
g93
ssg74
g1753
sg67
(lp1765
S':'
asbag60
(g81
g62
NtRp1766
(dp1767
g65
(dp1768
sg74
g1753
sg67
(lp1769
g60
(g61
g62
NtRp1770
(dp1771
g65
(dp1772
g73
I5
ssg74
g1766
sg67
(lp1773
S'C:\\Users\\Do It\\Desktop\\web2py_opine\\web2py\\applications\\openopine\\'
p1774
asbasbasbag60
(g76
g62
NtRp1775
(dp1776
g65
(dp1777
sg74
g70
sg67
(lp1778
g60
(g81
g62
NtRp1779
(dp1780
g65
(dp1781
g85
g86
ssg74
g1775
sg67
(lp1782
S'function'
p1783
asbag60
(g81
g62
NtRp1784
(dp1785
g65
(dp1786
g92
g93
ssg74
g1775
sg67
(lp1787
S':'
asbag60
(g81
g62
NtRp1788
(dp1789
g65
(dp1790
sg74
g1775
sg67
(lp1791
g60
(g61
g62
NtRp1792
(dp1793
g65
(dp1794
g73
I5
ssg74
g1788
sg67
(lp1795
S'create_review'
p1796
asbasbasbag60
(g76
g62
NtRp1797
(dp1798
g65
(dp1799
sg74
g70
sg67
(lp1800
g60
(g81
g62
NtRp1801
(dp1802
g65
(dp1803
g85
g86
ssg74
g1797
sg67
(lp1804
S'get_vars'
p1805
asbag60
(g81
g62
NtRp1806
(dp1807
g65
(dp1808
g92
g93
ssg74
g1797
sg67
(lp1809
S':'
asbag60
(g81
g62
NtRp1810
(dp1811
g65
(dp1812
sg74
g1797
sg67
(lp1813
g60
(g61
g62
NtRp1814
(dp1815
g65
(dp1816
g73
I5
ssg74
g1810
sg67
(lp1817
g60
(g69
g62
NtRp1818
(dp1819
g65
(dp1820
g73
I4
ssg74
Nsg67
(lp1821
sbasbasbasbag60
(g76
g62
NtRp1822
(dp1823
g65
(dp1824
sg74
g70
sg67
(lp1825
g60
(g81
g62
NtRp1826
(dp1827
g65
(dp1828
g85
g86
ssg74
g1822
sg67
(lp1829
S'global_settings'
p1830
asbag60
(g81
g62
NtRp1831
(dp1832
g65
(dp1833
g92
g93
ssg74
g1822
sg67
(lp1834
S':'
asbag60
(g81
g62
NtRp1835
(dp1836
g65
(dp1837
sg74
g1822
sg67
(lp1838
g60
(g61
g62
NtRp1839
(dp1840
g65
(dp1841
g73
I5
ssg74
g1835
sg67
(lp1842
g60
(g69
g62
NtRp1843
(dp1844
g65
(dp1845
g73
I4
ssg74
Nsg67
(lp1846
g60
(g76
g62
NtRp1847
(dp1848
g65
(dp1849
sg74
g1843
sg67
(lp1850
g60
(g81
g62
NtRp1851
(dp1852
g65
(dp1853
g85
g86
ssg74
g1847
sg67
(lp1854
g814
asbag60
(g81
g62
NtRp1855
(dp1856
g65
(dp1857
g92
g93
ssg74
g1847
sg67
(lp1858
S':'
asbag60
(g81
g62
NtRp1859
(dp1860
g65
(dp1861
sg74
g1847
sg67
(lp1862
g60
(g61
g62
NtRp1863
(dp1864
g65
(dp1865
g73
I4
ssg74
g1859
sg67
(lp1866
S"set(['C:\\\\Users\\\\Do It\\\\Desktop\\\\web2py_opine\\\\web2py\\\\applications\\\\init\\\\', 'C:\\\\Users\\\\Do It\\\\Desktop\\\\web2py_opine\\\\web2py\\\\applications\\\\admin\\\\', 'C:\\\\Users\\\\Do It\\\\Desktop\\\\web2py_opine\\\\web2py\\\\applications\\\\openopine\\\\'])"
p1867
asbasbasbag60
(g76
g62
NtRp1868
(dp1869
g65
(dp1870
sg74
g1843
sg67
(lp1871
g60
(g81
g62
NtRp1872
(dp1873
g65
(dp1874
g85
g86
ssg74
g1868
sg67
(lp1875
g836
asbag60
(g81
g62
NtRp1876
(dp1877
g65
(dp1878
g92
g93
ssg74
g1868
sg67
(lp1879
S':'
asbag60
(g81
g62
NtRp1880
(dp1881
g65
(dp1882
sg74
g1868
sg67
(lp1883
g60
(g61
g62
NtRp1884
(dp1885
g65
(dp1886
g73
I4
ssg74
g1880
sg67
(lp1887
g849
asbasbasbag60
(g76
g62
NtRp1888
(dp1889
g65
(dp1890
sg74
g1843
sg67
(lp1891
g60
(g81
g62
NtRp1892
(dp1893
g65
(dp1894
g85
g86
ssg74
g1888
sg67
(lp1895
g858
asbag60
(g81
g62
NtRp1896
(dp1897
g65
(dp1898
g92
g93
ssg74
g1888
sg67
(lp1899
S':'
asbag60
(g81
g62
NtRp1900
(dp1901
g65
(dp1902
sg74
g1888
sg67
(lp1903
g60
(g61
g62
NtRp1904
(dp1905
g65
(dp1906
g73
I4
ssg74
g1900
sg67
(lp1907
g60
(g69
g62
NtRp1908
(dp1909
g65
(dp1910
g73
I3
ssg74
Nsg67
(lp1911
sbasbasbasbag60
(g76
g62
NtRp1912
(dp1913
g65
(dp1914
sg74
g1843
sg67
(lp1915
g60
(g81
g62
NtRp1916
(dp1917
g65
(dp1918
g85
g86
ssg74
g1912
sg67
(lp1919
g883
asbag60
(g81
g62
NtRp1920
(dp1921
g65
(dp1922
g92
g93
ssg74
g1912
sg67
(lp1923
S':'
asbag60
(g81
g62
NtRp1924
(dp1925
g65
(dp1926
sg74
g1912
sg67
(lp1927
g60
(g61
g62
NtRp1928
(dp1929
g65
(dp1930
g73
I4
ssg74
g1924
sg67
(lp1931
S"<Values at 0x2b82260: {'verbose': False, 'ip': '127.0.0.1', 'shutdown_timeout': 5, 'taskbar': False, 'nocron': False, 'pid_filename': 'httpserver.pid', 'maxthreads': None, 'softcron': False, 'server_name': 'Double', 'bpython': False, 'nogui': False, 'port': 8000, 'extcron': False, 'debuglevel': 30, 'test': None, 'folder': 'C:\\\\Users\\\\Do It\\\\Desktop\\\\web2py_opine\\\\web2py', 'config': '', 'import_models': False, 'winservice': '', 'shell': None, 'run': '', 'log_filename': 'httpserver.log', 'args': [''], 'ssl_ca_certificate': None, 'scheduler': None, 'profiler_filename': None, 'ssl_private_key': '', 'password': '<ask>', 'request_queue_size': 5, 'ssl_certificate': '', 'cronjob': False, 'plain': False, 'quiet': False, 'interfaces': None, 'minthreads': None, 'timeout': 10, 'numthreads': None, 'nobanner': False}>"
p1932
asbasbasbag60
(g76
g62
NtRp1933
(dp1934
g65
(dp1935
sg74
g1843
sg67
(lp1936
g60
(g81
g62
NtRp1937
(dp1938
g65
(dp1939
g85
g86
ssg74
g1933
sg67
(lp1940
g905
asbag60
(g81
g62
NtRp1941
(dp1942
g65
(dp1943
g92
g93
ssg74
g1933
sg67
(lp1944
S':'
asbag60
(g81
g62
NtRp1945
(dp1946
g65
(dp1947
sg74
g1933
sg67
(lp1948
g60
(g61
g62
NtRp1949
(dp1950
g65
(dp1951
g73
I4
ssg74
g1945
sg67
(lp1952
S'set([])'
p1953
asbasbasbag60
(g76
g62
NtRp1954
(dp1955
g65
(dp1956
sg74
g1843
sg67
(lp1957
g60
(g81
g62
NtRp1958
(dp1959
g65
(dp1960
g85
g86
ssg74
g1954
sg67
(lp1961
g927
asbag60
(g81
g62
NtRp1962
(dp1963
g65
(dp1964
g92
g93
ssg74
g1954
sg67
(lp1965
S':'
asbag60
(g81
g62
NtRp1966
(dp1967
g65
(dp1968
sg74
g1954
sg67
(lp1969
g60
(g61
g62
NtRp1970
(dp1971
g65
(dp1972
g73
I4
ssg74
g1966
sg67
(lp1973
g103
asbasbasbag60
(g76
g62
NtRp1974
(dp1975
g65
(dp1976
sg74
g1843
sg67
(lp1977
g60
(g81
g62
NtRp1978
(dp1979
g65
(dp1980
g85
g86
ssg74
g1974
sg67
(lp1981
g948
asbag60
(g81
g62
NtRp1982
(dp1983
g65
(dp1984
g92
g93
ssg74
g1974
sg67
(lp1985
S':'
asbag60
(g81
g62
NtRp1986
(dp1987
g65
(dp1988
sg74
g1974
sg67
(lp1989
g60
(g61
g62
NtRp1990
(dp1991
g65
(dp1992
g73
I4
ssg74
g1986
sg67
(lp1993
g961
asbasbasbag60
(g76
g62
NtRp1994
(dp1995
g65
(dp1996
sg74
g1843
sg67
(lp1997
g60
(g81
g62
NtRp1998
(dp1999
g65
(dp2000
g85
g86
ssg74
g1994
sg67
(lp2001
g1168
asbag60
(g81
g62
NtRp2002
(dp2003
g65
(dp2004
g92
g93
ssg74
g1994
sg67
(lp2005
S':'
asbag60
(g81
g62
NtRp2006
(dp2007
g65
(dp2008
sg74
g1994
sg67
(lp2009
g60
(g61
g62
NtRp2010
(dp2011
g65
(dp2012
g73
I4
ssg74
g2006
sg67
(lp2013
g103
asbasbasbag60
(g76
g62
NtRp2014
(dp2015
g65
(dp2016
sg74
g1843
sg67
(lp2017
g60
(g81
g62
NtRp2018
(dp2019
g65
(dp2020
g85
g86
ssg74
g2014
sg67
(lp2021
g1407
asbag60
(g81
g62
NtRp2022
(dp2023
g65
(dp2024
g92
g93
ssg74
g2014
sg67
(lp2025
S':'
asbag60
(g81
g62
NtRp2026
(dp2027
g65
(dp2028
sg74
g2014
sg67
(lp2029
g60
(g61
g62
NtRp2030
(dp2031
g65
(dp2032
g73
I4
ssg74
g2026
sg67
(lp2033
g1420
asbasbasbag60
(g76
g62
NtRp2034
(dp2035
g65
(dp2036
sg74
g1843
sg67
(lp2037
g60
(g81
g62
NtRp2038
(dp2039
g65
(dp2040
g85
g86
ssg74
g2034
sg67
(lp2041
g1450
asbag60
(g81
g62
NtRp2042
(dp2043
g65
(dp2044
g92
g93
ssg74
g2034
sg67
(lp2045
S':'
asbag60
(g81
g62
NtRp2046
(dp2047
g65
(dp2048
sg74
g2034
sg67
(lp2049
g60
(g61
g62
NtRp2050
(dp2051
g65
(dp2052
g73
I4
ssg74
g2046
sg67
(lp2053
g60
(g69
g62
NtRp2054
(dp2055
g65
(dp2056
g73
I3
ssg74
Nsg67
(lp2057
g60
(g76
g62
NtRp2058
(dp2059
g65
(dp2060
sg74
g2054
sg67
(lp2061
g60
(g81
g62
NtRp2062
(dp2063
g65
(dp2064
sg74
g2058
sg67
(lp2065
g60
(g61
g62
NtRp2066
(dp2067
g65
(dp2068
g73
I3
ssg74
g2062
sg67
(lp2069
S'1'
asbasbasbag60
(g76
g62
NtRp2070
(dp2071
g65
(dp2072
sg74
g2054
sg67
(lp2073
g60
(g81
g62
NtRp2074
(dp2075
g65
(dp2076
sg74
g2070
sg67
(lp2077
g60
(g61
g62
NtRp2078
(dp2079
g65
(dp2080
g73
I3
ssg74
g2074
sg67
(lp2081
S'99'
p2082
asbasbasbag60
(g76
g62
NtRp2083
(dp2084
g65
(dp2085
sg74
g2054
sg67
(lp2086
g60
(g81
g62
NtRp2087
(dp2088
g65
(dp2089
sg74
g2083
sg67
(lp2090
g60
(g61
g62
NtRp2091
(dp2092
g65
(dp2093
g73
I3
ssg74
g2087
sg67
(lp2094
S'2'
asbasbasbag60
(g76
g62
NtRp2095
(dp2096
g65
(dp2097
sg74
g2054
sg67
(lp2098
g60
(g81
g62
NtRp2099
(dp2100
g65
(dp2101
sg74
g2095
sg67
(lp2102
g60
(g61
g62
NtRp2103
(dp2104
g65
(dp2105
g73
I3
ssg74
g2099
sg67
(lp2106
S'datetime.datetime(2011, 9, 26, 6, 55, 33)'
p2107
asbasbasbag60
(g76
g62
NtRp2108
(dp2109
g65
(dp2110
sg74
g2054
sg67
(lp2111
g60
(g81
g62
NtRp2112
(dp2113
g65
(dp2114
sg74
g2108
sg67
(lp2115
g60
(g61
g62
NtRp2116
(dp2117
g65
(dp2118
g73
I3
ssg74
g2112
sg67
(lp2119
g1529
asbasbasbasbasbasbasbasbasbasbasbag60
(g76
g62
NtRp2120
(dp2121
g65
(dp2122
sg74
g70
sg67
(lp2123
g60
(g81
g62
NtRp2124
(dp2125
g65
(dp2126
g85
g86
ssg74
g2120
sg67
(lp2127
S'is_https'
p2128
asbag60
(g81
g62
NtRp2129
(dp2130
g65
(dp2131
g92
g93
ssg74
g2120
sg67
(lp2132
S':'
asbag60
(g81
g62
NtRp2133
(dp2134
g65
(dp2135
sg74
g2120
sg67
(lp2136
g60
(g61
g62
NtRp2137
(dp2138
g65
(dp2139
g73
I5
ssg74
g2133
sg67
(lp2140
g103
asbasbasbag60
(g76
g62
NtRp2141
(dp2142
g65
(dp2143
sg74
g70
sg67
(lp2144
g60
(g81
g62
NtRp2145
(dp2146
g65
(dp2147
g85
g86
ssg74
g2141
sg67
(lp2148
S'is_local'
p2149
asbag60
(g81
g62
NtRp2150
(dp2151
g65
(dp2152
g92
g93
ssg74
g2141
sg67
(lp2153
S':'
asbag60
(g81
g62
NtRp2154
(dp2155
g65
(dp2156
sg74
g2141
sg67
(lp2157
g60
(g61
g62
NtRp2158
(dp2159
g65
(dp2160
g73
I5
ssg74
g2154
sg67
(lp2161
g1638
asbasbasbag60
(g76
g62
NtRp2162
(dp2163
g65
(dp2164
sg74
g70
sg67
(lp2165
g60
(g81
g62
NtRp2166
(dp2167
g65
(dp2168
g85
g86
ssg74
g2162
sg67
(lp2169
S'is_restful'
p2170
asbag60
(g81
g62
NtRp2171
(dp2172
g65
(dp2173
g92
g93
ssg74
g2162
sg67
(lp2174
S':'
asbag60
(g81
g62
NtRp2175
(dp2176
g65
(dp2177
sg74
g2162
sg67
(lp2178
g60
(g61
g62
NtRp2179
(dp2180
g65
(dp2181
g73
I5
ssg74
g2175
sg67
(lp2182
g103
asbasbasbag60
(g76
g62
NtRp2183
(dp2184
g65
(dp2185
sg74
g70
sg67
(lp2186
g60
(g81
g62
NtRp2187
(dp2188
g65
(dp2189
g85
g86
ssg74
g2183
sg67
(lp2190
S'now'
p2191
asbag60
(g81
g62
NtRp2192
(dp2193
g65
(dp2194
g92
g93
ssg74
g2183
sg67
(lp2195
S':'
asbag60
(g81
g62
NtRp2196
(dp2197
g65
(dp2198
sg74
g2183
sg67
(lp2199
g60
(g61
g62
NtRp2200
(dp2201
g65
(dp2202
g73
I5
ssg74
g2196
sg67
(lp2203
S'datetime.datetime(2011, 11, 21, 9, 57, 17, 369000)'
p2204
asbasbasbag60
(g76
g62
NtRp2205
(dp2206
g65
(dp2207
sg74
g70
sg67
(lp2208
g60
(g81
g62
NtRp2209
(dp2210
g65
(dp2211
g85
g86
ssg74
g2205
sg67
(lp2212
S'post_vars'
p2213
asbag60
(g81
g62
NtRp2214
(dp2215
g65
(dp2216
g92
g93
ssg74
g2205
sg67
(lp2217
S':'
asbag60
(g81
g62
NtRp2218
(dp2219
g65
(dp2220
sg74
g2205
sg67
(lp2221
g60
(g61
g62
NtRp2222
(dp2223
g65
(dp2224
g73
I5
ssg74
g2218
sg67
(lp2225
g60
(g69
g62
NtRp2226
(dp2227
g65
(dp2228
g73
I4
ssg74
Nsg67
(lp2229
sbasbasbasbag60
(g76
g62
NtRp2230
(dp2231
g65
(dp2232
sg74
g70
sg67
(lp2233
g60
(g81
g62
NtRp2234
(dp2235
g65
(dp2236
g85
g86
ssg74
g2230
sg67
(lp2237
S'raw_args'
p2238
asbag60
(g81
g62
NtRp2239
(dp2240
g65
(dp2241
g92
g93
ssg74
g2230
sg67
(lp2242
S':'
asbag60
(g81
g62
NtRp2243
(dp2244
g65
(dp2245
sg74
g2230
sg67
(lp2246
g60
(g61
g62
NtRp2247
(dp2248
g65
(dp2249
g73
I5
ssg74
g2243
sg67
(lp2250
S'edit/place_review/1'
p2251
asbasbasbag60
(g76
g62
NtRp2252
(dp2253
g65
(dp2254
sg74
g70
sg67
(lp2255
g60
(g81
g62
NtRp2256
(dp2257
g65
(dp2258
g85
g86
ssg74
g2252
sg67
(lp2259
S'url'
p2260
asbag60
(g81
g62
NtRp2261
(dp2262
g65
(dp2263
g92
g93
ssg74
g2252
sg67
(lp2264
S':'
asbag60
(g81
g62
NtRp2265
(dp2266
g65
(dp2267
sg74
g2252
sg67
(lp2268
g60
(g61
g62
NtRp2269
(dp2270
g65
(dp2271
g73
I5
ssg74
g2265
sg67
(lp2272
S'/openopine/default/create_review/edit/place_review/1'
p2273
asbasbasbag60
(g76
g62
NtRp2274
(dp2275
g65
(dp2276
sg74
g70
sg67
(lp2277
g60
(g81
g62
NtRp2278
(dp2279
g65
(dp2280
g85
g86
ssg74
g2274
sg67
(lp2281
S'utcnow'
p2282
asbag60
(g81
g62
NtRp2283
(dp2284
g65
(dp2285
g92
g93
ssg74
g2274
sg67
(lp2286
S':'
asbag60
(g81
g62
NtRp2287
(dp2288
g65
(dp2289
sg74
g2274
sg67
(lp2290
g60
(g61
g62
NtRp2291
(dp2292
g65
(dp2293
g73
I5
ssg74
g2287
sg67
(lp2294
S'datetime.datetime(2011, 11, 21, 8, 57, 17, 369000)'
p2295
asbasbasbag60
(g76
g62
NtRp2296
(dp2297
g65
(dp2298
sg74
g70
sg67
(lp2299
g60
(g81
g62
NtRp2300
(dp2301
g65
(dp2302
g85
g86
ssg74
g2296
sg67
(lp2303
S'uuid'
p2304
asbag60
(g81
g62
NtRp2305
(dp2306
g65
(dp2307
g92
g93
ssg74
g2296
sg67
(lp2308
S':'
asbag60
(g81
g62
NtRp2309
(dp2310
g65
(dp2311
sg74
g2296
sg67
(lp2312
g60
(g61
g62
NtRp2313
(dp2314
g65
(dp2315
g73
I5
ssg74
g2309
sg67
(lp2316
S'openopine/127.0.0.1.2011-11-21.09-57-17.f04c0d78-e29a-4353-a0ff-e09004fb4ee3'
p2317
asbasbasbag60
(g76
g62
NtRp2318
(dp2319
g65
(dp2320
sg74
g70
sg67
(lp2321
g60
(g81
g62
NtRp2322
(dp2323
g65
(dp2324
g85
g86
ssg74
g2318
sg67
(lp2325
S'vars'
p2326
asbag60
(g81
g62
NtRp2327
(dp2328
g65
(dp2329
g92
g93
ssg74
g2318
sg67
(lp2330
S':'
asbag60
(g81
g62
NtRp2331
(dp2332
g65
(dp2333
sg74
g2318
sg67
(lp2334
g60
(g61
g62
NtRp2335
(dp2336
g65
(dp2337
g73
I5
ssg74
g2331
sg67
(lp2338
g60
(g69
g62
NtRp2339
(dp2340
g65
(dp2341
g73
I4
ssg74
Nsg67
(lp2342
sbasbasbasbag60
(g76
g62
NtRp2343
(dp2344
g65
(dp2345
sg74
g70
sg67
(lp2346
g60
(g81
g62
NtRp2347
(dp2348
g65
(dp2349
g85
g86
ssg74
g2343
sg67
(lp2350
S'wsgi'
p2351
asbag60
(g81
g62
NtRp2352
(dp2353
g65
(dp2354
g92
g93
ssg74
g2343
sg67
(lp2355
S':'
asbag60
(g81
g62
NtRp2356
(dp2357
g65
(dp2358
sg74
g2343
sg67
(lp2359
g60
(g61
g62
NtRp2360
(dp2361
g65
(dp2362
g73
I5
ssg74
g2356
sg67
(lp2363
g60
(g69
g62
NtRp2364
(dp2365
g65
(dp2366
g73
I4
ssg74
Nsg67
(lp2367
g60
(g76
g62
NtRp2368
(dp2369
g65
(dp2370
sg74
g2364
sg67
(lp2371
g60
(g81
g62
NtRp2372
(dp2373
g65
(dp2374
g85
g86
ssg74
g2368
sg67
(lp2375
S'environ'
p2376
asbag60
(g81
g62
NtRp2377
(dp2378
g65
(dp2379
g92
g93
ssg74
g2368
sg67
(lp2380
S':'
asbag60
(g81
g62
NtRp2381
(dp2382
g65
(dp2383
sg74
g2368
sg67
(lp2384
g60
(g61
g62
NtRp2385
(dp2386
g65
(dp2387
g73
I4
ssg74
g2381
sg67
(lp2388
g60
(g69
g62
NtRp2389
(dp2390
g65
(dp2391
g73
I3
ssg74
Nsg67
(lp2392
g60
(g76
g62
NtRp2393
(dp2394
g65
(dp2395
sg74
g2389
sg67
(lp2396
g60
(g81
g62
NtRp2397
(dp2398
g65
(dp2399
g85
g86
ssg74
g2393
sg67
(lp2400
S'HTTP_ACCEPT'
p2401
asbag60
(g81
g62
NtRp2402
(dp2403
g65
(dp2404
g92
g93
ssg74
g2393
sg67
(lp2405
S':'
asbag60
(g81
g62
NtRp2406
(dp2407
g65
(dp2408
sg74
g2393
sg67
(lp2409
g60
(g61
g62
NtRp2410
(dp2411
g65
(dp2412
g73
I3
ssg74
g2406
sg67
(lp2413
g983
asbasbasbag60
(g76
g62
NtRp2414
(dp2415
g65
(dp2416
sg74
g2389
sg67
(lp2417
g60
(g81
g62
NtRp2418
(dp2419
g65
(dp2420
g85
g86
ssg74
g2414
sg67
(lp2421
S'HTTP_ACCEPT_CHARSET'
p2422
asbag60
(g81
g62
NtRp2423
(dp2424
g65
(dp2425
g92
g93
ssg74
g2414
sg67
(lp2426
S':'
asbag60
(g81
g62
NtRp2427
(dp2428
g65
(dp2429
sg74
g2414
sg67
(lp2430
g60
(g61
g62
NtRp2431
(dp2432
g65
(dp2433
g73
I3
ssg74
g2427
sg67
(lp2434
g1005
asbasbasbag60
(g76
g62
NtRp2435
(dp2436
g65
(dp2437
sg74
g2389
sg67
(lp2438
g60
(g81
g62
NtRp2439
(dp2440
g65
(dp2441
g85
g86
ssg74
g2435
sg67
(lp2442
S'HTTP_ACCEPT_ENCODING'
p2443
asbag60
(g81
g62
NtRp2444
(dp2445
g65
(dp2446
g92
g93
ssg74
g2435
sg67
(lp2447
S':'
asbag60
(g81
g62
NtRp2448
(dp2449
g65
(dp2450
sg74
g2435
sg67
(lp2451
g60
(g61
g62
NtRp2452
(dp2453
g65
(dp2454
g73
I3
ssg74
g2448
sg67
(lp2455
g1027
asbasbasbag60
(g76
g62
NtRp2456
(dp2457
g65
(dp2458
sg74
g2389
sg67
(lp2459
g60
(g81
g62
NtRp2460
(dp2461
g65
(dp2462
g85
g86
ssg74
g2456
sg67
(lp2463
S'HTTP_ACCEPT_LANGUAGE'
p2464
asbag60
(g81
g62
NtRp2465
(dp2466
g65
(dp2467
g92
g93
ssg74
g2456
sg67
(lp2468
S':'
asbag60
(g81
g62
NtRp2469
(dp2470
g65
(dp2471
sg74
g2456
sg67
(lp2472
g60
(g61
g62
NtRp2473
(dp2474
g65
(dp2475
g73
I3
ssg74
g2469
sg67
(lp2476
g1049
asbasbasbag60
(g76
g62
NtRp2477
(dp2478
g65
(dp2479
sg74
g2389
sg67
(lp2480
g60
(g81
g62
NtRp2481
(dp2482
g65
(dp2483
g85
g86
ssg74
g2477
sg67
(lp2484
S'HTTP_CONNECTION'
p2485
asbag60
(g81
g62
NtRp2486
(dp2487
g65
(dp2488
g92
g93
ssg74
g2477
sg67
(lp2489
S':'
asbag60
(g81
g62
NtRp2490
(dp2491
g65
(dp2492
sg74
g2477
sg67
(lp2493
g60
(g61
g62
NtRp2494
(dp2495
g65
(dp2496
g73
I3
ssg74
g2490
sg67
(lp2497
g1071
asbasbasbag60
(g76
g62
NtRp2498
(dp2499
g65
(dp2500
sg74
g2389
sg67
(lp2501
g60
(g81
g62
NtRp2502
(dp2503
g65
(dp2504
g85
g86
ssg74
g2498
sg67
(lp2505
S'HTTP_COOKIE'
p2506
asbag60
(g81
g62
NtRp2507
(dp2508
g65
(dp2509
g92
g93
ssg74
g2498
sg67
(lp2510
S':'
asbag60
(g81
g62
NtRp2511
(dp2512
g65
(dp2513
sg74
g2498
sg67
(lp2514
g60
(g61
g62
NtRp2515
(dp2516
g65
(dp2517
g73
I3
ssg74
g2511
sg67
(lp2518
g1093
asbasbasbag60
(g76
g62
NtRp2519
(dp2520
g65
(dp2521
sg74
g2389
sg67
(lp2522
g60
(g81
g62
NtRp2523
(dp2524
g65
(dp2525
g85
g86
ssg74
g2519
sg67
(lp2526
S'HTTP_HOST'
p2527
asbag60
(g81
g62
NtRp2528
(dp2529
g65
(dp2530
g92
g93
ssg74
g2519
sg67
(lp2531
S':'
asbag60
(g81
g62
NtRp2532
(dp2533
g65
(dp2534
sg74
g2519
sg67
(lp2535
g60
(g61
g62
NtRp2536
(dp2537
g65
(dp2538
g73
I3
ssg74
g2532
sg67
(lp2539
g1115
asbasbasbag60
(g76
g62
NtRp2540
(dp2541
g65
(dp2542
sg74
g2389
sg67
(lp2543
g60
(g81
g62
NtRp2544
(dp2545
g65
(dp2546
g85
g86
ssg74
g2540
sg67
(lp2547
S'HTTP_REFERER'
p2548
asbag60
(g81
g62
NtRp2549
(dp2550
g65
(dp2551
g92
g93
ssg74
g2540
sg67
(lp2552
S':'
asbag60
(g81
g62
NtRp2553
(dp2554
g65
(dp2555
sg74
g2540
sg67
(lp2556
g60
(g61
g62
NtRp2557
(dp2558
g65
(dp2559
g73
I3
ssg74
g2553
sg67
(lp2560
g1137
asbasbasbag60
(g76
g62
NtRp2561
(dp2562
g65
(dp2563
sg74
g2389
sg67
(lp2564
g60
(g81
g62
NtRp2565
(dp2566
g65
(dp2567
g85
g86
ssg74
g2561
sg67
(lp2568
S'HTTP_USER_AGENT'
p2569
asbag60
(g81
g62
NtRp2570
(dp2571
g65
(dp2572
g92
g93
ssg74
g2561
sg67
(lp2573
S':'
asbag60
(g81
g62
NtRp2574
(dp2575
g65
(dp2576
sg74
g2561
sg67
(lp2577
g60
(g61
g62
NtRp2578
(dp2579
g65
(dp2580
g73
I3
ssg74
g2574
sg67
(lp2581
g1159
asbasbasbag60
(g76
g62
NtRp2582
(dp2583
g65
(dp2584
sg74
g2389
sg67
(lp2585
g60
(g81
g62
NtRp2586
(dp2587
g65
(dp2588
g85
g86
ssg74
g2582
sg67
(lp2589
S'PATH_INFO'
p2590
asbag60
(g81
g62
NtRp2591
(dp2592
g65
(dp2593
g92
g93
ssg74
g2582
sg67
(lp2594
S':'
asbag60
(g81
g62
NtRp2595
(dp2596
g65
(dp2597
sg74
g2582
sg67
(lp2598
g60
(g61
g62
NtRp2599
(dp2600
g65
(dp2601
g73
I3
ssg74
g2595
sg67
(lp2602
g1202
asbasbasbag60
(g76
g62
NtRp2603
(dp2604
g65
(dp2605
sg74
g2389
sg67
(lp2606
g60
(g81
g62
NtRp2607
(dp2608
g65
(dp2609
g85
g86
ssg74
g2603
sg67
(lp2610
S'QUERY_STRING'
p2611
asbag60
(g81
g62
NtRp2612
(dp2613
g65
(dp2614
g92
g93
ssg74
g2603
sg67
(lp2615
S':'
asbag60
(g81
g62
NtRp2616
(dp2617
g65
(dp2618
sg74
g2603
sg67
(lp2619
g60
(g61
g62
NtRp2620
(dp2621
g65
(dp2622
g73
I3
ssg74
g2616
sg67
(lp2623
g1224
asbasbasbag60
(g76
g62
NtRp2624
(dp2625
g65
(dp2626
sg74
g2389
sg67
(lp2627
g60
(g81
g62
NtRp2628
(dp2629
g65
(dp2630
g85
g86
ssg74
g2624
sg67
(lp2631
S'REMOTE_ADDR'
p2632
asbag60
(g81
g62
NtRp2633
(dp2634
g65
(dp2635
g92
g93
ssg74
g2624
sg67
(lp2636
S':'
asbag60
(g81
g62
NtRp2637
(dp2638
g65
(dp2639
sg74
g2624
sg67
(lp2640
g60
(g61
g62
NtRp2641
(dp2642
g65
(dp2643
g73
I3
ssg74
g2637
sg67
(lp2644
g231
asbasbasbag60
(g76
g62
NtRp2645
(dp2646
g65
(dp2647
sg74
g2389
sg67
(lp2648
g60
(g81
g62
NtRp2649
(dp2650
g65
(dp2651
g85
g86
ssg74
g2645
sg67
(lp2652
S'REMOTE_PORT'
p2653
asbag60
(g81
g62
NtRp2654
(dp2655
g65
(dp2656
g92
g93
ssg74
g2645
sg67
(lp2657
S':'
asbag60
(g81
g62
NtRp2658
(dp2659
g65
(dp2660
sg74
g2645
sg67
(lp2661
g60
(g61
g62
NtRp2662
(dp2663
g65
(dp2664
g73
I3
ssg74
g2658
sg67
(lp2665
g1267
asbasbasbag60
(g76
g62
NtRp2666
(dp2667
g65
(dp2668
sg74
g2389
sg67
(lp2669
g60
(g81
g62
NtRp2670
(dp2671
g65
(dp2672
g85
g86
ssg74
g2666
sg67
(lp2673
S'REQUEST_METHOD'
p2674
asbag60
(g81
g62
NtRp2675
(dp2676
g65
(dp2677
g92
g93
ssg74
g2666
sg67
(lp2678
S':'
asbag60
(g81
g62
NtRp2679
(dp2680
g65
(dp2681
sg74
g2666
sg67
(lp2682
g60
(g61
g62
NtRp2683
(dp2684
g65
(dp2685
g73
I3
ssg74
g2679
sg67
(lp2686
g1289
asbasbasbag60
(g76
g62
NtRp2687
(dp2688
g65
(dp2689
sg74
g2389
sg67
(lp2690
g60
(g81
g62
NtRp2691
(dp2692
g65
(dp2693
g85
g86
ssg74
g2687
sg67
(lp2694
S'SCRIPT_NAME'
p2695
asbag60
(g81
g62
NtRp2696
(dp2697
g65
(dp2698
g92
g93
ssg74
g2687
sg67
(lp2699
S':'
asbag60
(g81
g62
NtRp2700
(dp2701
g65
(dp2702
sg74
g2687
sg67
(lp2703
g60
(g61
g62
NtRp2704
(dp2705
g65
(dp2706
g73
I3
ssg74
g2700
sg67
(lp2707
S''
asbasbasbag60
(g76
g62
NtRp2708
(dp2709
g65
(dp2710
sg74
g2389
sg67
(lp2711
g60
(g81
g62
NtRp2712
(dp2713
g65
(dp2714
g85
g86
ssg74
g2708
sg67
(lp2715
S'SERVER_NAME'
p2716
asbag60
(g81
g62
NtRp2717
(dp2718
g65
(dp2719
g92
g93
ssg74
g2708
sg67
(lp2720
S':'
asbag60
(g81
g62
NtRp2721
(dp2722
g65
(dp2723
sg74
g2708
sg67
(lp2724
g60
(g61
g62
NtRp2725
(dp2726
g65
(dp2727
g73
I3
ssg74
g2721
sg67
(lp2728
g1332
asbasbasbag60
(g76
g62
NtRp2729
(dp2730
g65
(dp2731
sg74
g2389
sg67
(lp2732
g60
(g81
g62
NtRp2733
(dp2734
g65
(dp2735
g85
g86
ssg74
g2729
sg67
(lp2736
S'SERVER_PORT'
p2737
asbag60
(g81
g62
NtRp2738
(dp2739
g65
(dp2740
g92
g93
ssg74
g2729
sg67
(lp2741
S':'
asbag60
(g81
g62
NtRp2742
(dp2743
g65
(dp2744
sg74
g2729
sg67
(lp2745
g60
(g61
g62
NtRp2746
(dp2747
g65
(dp2748
g73
I3
ssg74
g2742
sg67
(lp2749
g1354
asbasbasbag60
(g76
g62
NtRp2750
(dp2751
g65
(dp2752
sg74
g2389
sg67
(lp2753
g60
(g81
g62
NtRp2754
(dp2755
g65
(dp2756
g85
g86
ssg74
g2750
sg67
(lp2757
S'SERVER_PROTOCOL'
p2758
asbag60
(g81
g62
NtRp2759
(dp2760
g65
(dp2761
g92
g93
ssg74
g2750
sg67
(lp2762
S':'
asbag60
(g81
g62
NtRp2763
(dp2764
g65
(dp2765
sg74
g2750
sg67
(lp2766
g60
(g61
g62
NtRp2767
(dp2768
g65
(dp2769
g73
I3
ssg74
g2763
sg67
(lp2770
g1376
asbasbasbag60
(g76
g62
NtRp2771
(dp2772
g65
(dp2773
sg74
g2389
sg67
(lp2774
g60
(g81
g62
NtRp2775
(dp2776
g65
(dp2777
g85
g86
ssg74
g2771
sg67
(lp2778
S'SERVER_SOFTWARE'
p2779
asbag60
(g81
g62
NtRp2780
(dp2781
g65
(dp2782
g92
g93
ssg74
g2771
sg67
(lp2783
S':'
asbag60
(g81
g62
NtRp2784
(dp2785
g65
(dp2786
sg74
g2771
sg67
(lp2787
g60
(g61
g62
NtRp2788
(dp2789
g65
(dp2790
g73
I3
ssg74
g2784
sg67
(lp2791
g1398
asbasbasbag60
(g76
g62
NtRp2792
(dp2793
g65
(dp2794
sg74
g2389
sg67
(lp2795
g60
(g81
g62
NtRp2796
(dp2797
g65
(dp2798
g85
g86
ssg74
g2792
sg67
(lp2799
S'wsgi.errors'
p2800
asbag60
(g81
g62
NtRp2801
(dp2802
g65
(dp2803
g92
g93
ssg74
g2792
sg67
(lp2804
S':'
asbag60
(g81
g62
NtRp2805
(dp2806
g65
(dp2807
sg74
g2792
sg67
(lp2808
g60
(g61
g62
NtRp2809
(dp2810
g65
(dp2811
g73
I3
ssg74
g2805
sg67
(lp2812
S"<open file '<stderr>', mode 'w' at 0x01CD00B0>"
p2813
asbasbasbag60
(g76
g62
NtRp2814
(dp2815
g65
(dp2816
sg74
g2389
sg67
(lp2817
g60
(g81
g62
NtRp2818
(dp2819
g65
(dp2820
g85
g86
ssg74
g2814
sg67
(lp2821
S'wsgi.file_wrapper'
p2822
asbag60
(g81
g62
NtRp2823
(dp2824
g65
(dp2825
g92
g93
ssg74
g2814
sg67
(lp2826
S':'
asbag60
(g81
g62
NtRp2827
(dp2828
g65
(dp2829
sg74
g2814
sg67
(lp2830
g60
(g61
g62
NtRp2831
(dp2832
g65
(dp2833
g73
I3
ssg74
g2827
sg67
(lp2834
S'<class wsgiref.util.FileWrapper at 0x02AAAC30>'
p2835
asbasbasbag60
(g76
g62
NtRp2836
(dp2837
g65
(dp2838
sg74
g2389
sg67
(lp2839
g60
(g81
g62
NtRp2840
(dp2841
g65
(dp2842
g85
g86
ssg74
g2836
sg67
(lp2843
S'wsgi.input'
p2844
asbag60
(g81
g62
NtRp2845
(dp2846
g65
(dp2847
g92
g93
ssg74
g2836
sg67
(lp2848
S':'
asbag60
(g81
g62
NtRp2849
(dp2850
g65
(dp2851
sg74
g2836
sg67
(lp2852
g60
(g61
g62
NtRp2853
(dp2854
g65
(dp2855
g73
I3
ssg74
g2849
sg67
(lp2856
S'<cStringIO.StringO object at 0x072D3600>'
p2857
asbasbasbag60
(g76
g62
NtRp2858
(dp2859
g65
(dp2860
sg74
g2389
sg67
(lp2861
g60
(g81
g62
NtRp2862
(dp2863
g65
(dp2864
g85
g86
ssg74
g2858
sg67
(lp2865
S'wsgi.multiprocess'
p2866
asbag60
(g81
g62
NtRp2867
(dp2868
g65
(dp2869
g92
g93
ssg74
g2858
sg67
(lp2870
S':'
asbag60
(g81
g62
NtRp2871
(dp2872
g65
(dp2873
sg74
g2858
sg67
(lp2874
g60
(g61
g62
NtRp2875
(dp2876
g65
(dp2877
g73
I3
ssg74
g2871
sg67
(lp2878
g103
asbasbasbag60
(g76
g62
NtRp2879
(dp2880
g65
(dp2881
sg74
g2389
sg67
(lp2882
g60
(g81
g62
NtRp2883
(dp2884
g65
(dp2885
g85
g86
ssg74
g2879
sg67
(lp2886
S'wsgi.multithread'
p2887
asbag60
(g81
g62
NtRp2888
(dp2889
g65
(dp2890
g92
g93
ssg74
g2879
sg67
(lp2891
S':'
asbag60
(g81
g62
NtRp2892
(dp2893
g65
(dp2894
sg74
g2879
sg67
(lp2895
g60
(g61
g62
NtRp2896
(dp2897
g65
(dp2898
g73
I3
ssg74
g2892
sg67
(lp2899
g1638
asbasbasbag60
(g76
g62
NtRp2900
(dp2901
g65
(dp2902
sg74
g2389
sg67
(lp2903
g60
(g81
g62
NtRp2904
(dp2905
g65
(dp2906
g85
g86
ssg74
g2900
sg67
(lp2907
S'wsgi.run_once'
p2908
asbag60
(g81
g62
NtRp2909
(dp2910
g65
(dp2911
g92
g93
ssg74
g2900
sg67
(lp2912
S':'
asbag60
(g81
g62
NtRp2913
(dp2914
g65
(dp2915
sg74
g2900
sg67
(lp2916
g60
(g61
g62
NtRp2917
(dp2918
g65
(dp2919
g73
I3
ssg74
g2913
sg67
(lp2920
g103
asbasbasbag60
(g76
g62
NtRp2921
(dp2922
g65
(dp2923
sg74
g2389
sg67
(lp2924
g60
(g81
g62
NtRp2925
(dp2926
g65
(dp2927
g85
g86
ssg74
g2921
sg67
(lp2928
S'wsgi.url_scheme'
p2929
asbag60
(g81
g62
NtRp2930
(dp2931
g65
(dp2932
g92
g93
ssg74
g2921
sg67
(lp2933
S':'
asbag60
(g81
g62
NtRp2934
(dp2935
g65
(dp2936
sg74
g2921
sg67
(lp2937
g60
(g61
g62
NtRp2938
(dp2939
g65
(dp2940
g73
I3
ssg74
g2934
sg67
(lp2941
g1681
asbasbasbag60
(g76
g62
NtRp2942
(dp2943
g65
(dp2944
sg74
g2389
sg67
(lp2945
g60
(g81
g62
NtRp2946
(dp2947
g65
(dp2948
g85
g86
ssg74
g2942
sg67
(lp2949
S'wsgi.version'
p2950
asbag60
(g81
g62
NtRp2951
(dp2952
g65
(dp2953
g92
g93
ssg74
g2942
sg67
(lp2954
S':'
asbag60
(g81
g62
NtRp2955
(dp2956
g65
(dp2957
sg74
g2942
sg67
(lp2958
g60
(g61
g62
NtRp2959
(dp2960
g65
(dp2961
g73
I3
ssg74
g2955
sg67
(lp2962
S'1'
asbasbasbasbasbasbasbasbasbasbasbasbasbsS'frames'
p2963
(lp2964
(dp2965
S'file'
p2966
S'C:\\Users\\Do It\\Desktop\\web2py_opine\\web2py\\gluon\\restricted.py'
p2967
sS'dump'
p2968
(dp2969
S'environment'
p2970
S"{'A': <class 'gluon.html.A'>, 'Auth': <class 'gluon.tools.Auth'>, 'B': <class 'gluon.html.B'>, 'BEAUTIFY': <class 'gluon.html.BEAUTIFY'>, 'BODY': <class 'gluon.html.BODY'>, 'BR': <class 'gluon.html.BR'>, 'BUTTON': <class 'gluon.html.BUTTON'>, 'CAT': <class 'gluon.html.CAT'>, 'CENTER': <class 'gluon.html.CENTER'>, 'CLEANUP': <class 'gluon.validators.CLEANUP'>, ...}"
p2971
sS'ccode'
p2972
S'<code object <module> at 0331BA88, file "C:\\User...tions\\openopine\\controllers/default.py", line 11>'
p2973
ssS'lnum'
p2974
I194
sS'lines'
p2975
(dp2976
I192
S'        else:'
p2977
sI193
S'            ccode = compile2(code,layer)'
p2978
sI194
S'        exec ccode in environment'
p2979
sI195
S'    except HTTP:'
p2980
sI196
S'        raise'
p2981
sI197
S'    except Exception, error:'
p2982
sI198
S'        # XXX Show exception in Wing IDE if running in debugger'
p2983
sI189
S'    try:'
p2984
sI190
S'        if type(code) == types.CodeType:'
p2985
sI191
S'            ccode = code'
p2986
ssS'call'
p2987
S"(code='# -*- coding: utf-8 -*-\\n\\n#######################...\\n\\nresponse._vars=response._caller(create_review)\\n', environment={'A': <class 'gluon.html.A'>, 'Auth': <class 'gluon.tools.Auth'>, 'B': <class 'gluon.html.B'>, 'BEAUTIFY': <class 'gluon.html.BEAUTIFY'>, 'BODY': <class 'gluon.html.BODY'>, 'BR': <class 'gluon.html.BR'>, 'BUTTON': <class 'gluon.html.BUTTON'>, 'CAT': <class 'gluon.html.CAT'>, 'CENTER': <class 'gluon.html.CENTER'>, 'CLEANUP': <class 'gluon.validators.CLEANUP'>, ...}, layer=r'C:\\Users\\Do It\\Desktop\\web2py_opine\\web2py\\applications\\openopine\\controllers/default.py')"
p2988
sS'func'
p2989
S'restricted'
p2990
sa(dp2991
g2966
S'C:\\Users\\Do It\\Desktop\\web2py_opine\\web2py\\applications\\openopine\\controllers\\default.py'
p2992
sg2968
(dp2993
sg2974
I327
sg2975
(dp2994
I320
S'    else:'
p2995
sI321
S'        for p in pics:'
p2996
sI322
S"            pgraphics.append([p['id'], URL(r=request, f='download', args=p[photo_field]), p[first]+', '+p[secondary] if secondary else p[first],redirect])"
p2997
sI323
S'            if len(pgraphics) == limit:'
p2998
sI324
S'                break'
p2999
sI325
S'    return pgraphics'
p3000
sI316
S"            pgraphics.append([p['id'], URL(r=request, f='download', args=p[photo_field]), p[first]+', '+p[secondary] if secondary else p[first], redirect])"
p3001
sI317
S'            if len(pgraphics) == limit:'
p3002
sI318
S'                break'
p3003
sI319
S"        pgraphics.append([last['id'], URL(r=request, f='download', args=last[photo_field]), last[first]+', '+last[secondary] if secondary else last[first], redirect])"
p3004
ssg2987
S'()'
p3005
sg2989
S'<module>'
p3006
sa(dp3007
g2966
S'C:\\Users\\Do It\\Desktop\\web2py_opine\\web2py\\gluon\\globals.py'
p3008
sg2968
(dp3009
S'self'
p3010
S'undefined'
p3011
sS'f'
S'<function create_review at 0x06D18CB0>'
p3012
ssg2974
I149
sg2975
(dp3013
I144
S'        self.meta = Storage()      # used by web2py_ajax.html'
p3014
sI145
S'        self.menu = []             # used by the default view layout'
p3015
sI146
S'        self.files = []            # used by web2py_ajax.html'
p3016
sI147
S'        self.generic_patterns = [] # patterns to allow generic views'
p3017
sI148
S'        self._vars = None'
p3018
sI149
S'        self._caller = lambda f: f()'
p3019
sI150
S'        self._view_environment = None'
p3020
sI151
S'        self._custom_commit = None'
p3021
sI152
S'        self._custom_rollback = None'
p3022
sI153
S''
ssg2987
S'(f=<function create_review at 0x06D18CB0>)'
p3023
sg2989
S'<lambda>'
p3024
sa(dp3025
g2966
S'C:\\Users\\Do It\\Desktop\\web2py_opine\\web2py\\gluon\\tools.py'
p3026
sg2968
(dp3027
S'action'
p3028
S'<function create_review at 0x06D18CF0>'
p3029
sS'a'
S'()'
p3030
sS'b'
g20
ssg2974
I2456
sg2975
(dp3031
I2451
S"                            '?_next='+urllib.quote(next))"
p3032
sI2452
S'                if not condition:'
p3033
sI2453
S'                    current.session.flash = self.messages.access_denied'
p3034
sI2454
S'                    return call_or_redirect('
p3035
sI2455
S'                        self.settings.on_failed_authorization)'
p3036
sI2456
S'                return action(*a, **b)'
p3037
sI2457
S'            f.__doc__ = action.__doc__'
p3038
sI2458
S'            f.__name__ = action.__name__'
p3039
sI2459
S'            f.__dict__.update(action.__dict__)'
p3040
sI2460
S'            return f'
p3041
ssg2987
S'(*a=(), **b={})'
p3042
sg2989
S'f'
sa(dp3043
g2966
S'C:\\Users\\Do It\\Desktop\\web2py_opine\\web2py\\applications\\openopine\\controllers\\default.py'
p3044
sg2968
(dp3045
S'global session'
p3046
S"<Storage {'_auth_next': '/openopine/default/inde...login]': 'e82c5da4-d7b8-4356-89e3-ddf670bc800c'}>"
p3047
sS'viewname'
p3048
S"<lazyT 'Product'>"
p3049
sS'global T'
p3050
S'<gluon.languages.translator object at 0x072D17D0>'
p3051
sS'headers'
p3052
g3011
sS'columns'
p3053
g3011
sS'session.tablename'
p3054
S"'place'"
p3055
sS'builtindict'
p3056
S"<type 'dict'>"
p3057
ssg2974
I281
sg2975
(dp3058
I276
S'            table.author.default = db(db.reviewer.userid == auth.user_id).select(db.reviewer.id).first().id'
p3059
sI277
S"            if not auth.has_membership('admin'):"
p3060
sI278
S'                table.author.writable = False'
p3061
sI279
S'    viewname = tablelabel(session.tablename)'
p3062
sI280
S'    form = SQLFORM.grid(table, maxtextlength=15, csv=False,\\'
p3063
sI281
S'                        headers=dict([(session.tablename+\'_review.ref_id\',viewname),(session.tablename+\'_review.blurb\', T(\'Short Description\')),(session.tablename+\'_review.author\', T("Reviewer")),(session.tablename+\'_review.title\', T("Title")),(session.tablename+\'_review.subject\', T("Subject"))]), columns=dict([(session.tablename+\'_review.ref_id\',15),(session.tablename+\'_review.blurb\', 15),(session.tablename+\'_review.author\', 15),(session.tablename+\'_review.title\', 15),(session.tablename+\'_review.subject\', 15)]))'
p3064
sI282
S"    return dict(searchrevs=[], searchprofs=[],tag_form='', form=form, message=T('Create %(tbl)s Review', dict(tbl=viewname)))"
p3065
sI283
S''
sI284
S"@auth.requires_membership('admin')"
p3066
sI285
S'def create_contributor():'
p3067
ssg2987
S'()'
p3068
sg2989
S'create_review'
p3069
sa(dp3070
g2966
S'C:\\Users\\Do It\\Desktop\\web2py_opine\\web2py\\gluon\\sqlhtml.py'
p3071
sg2968
(dp3072
S'_class'
p3073
S"'web2py_grid'"
p3074
ssg2974
I1473
sg2975
(dp3075
I1472
S'                                deletable=deletable,'
p3076
sI1473
S"                                _class='web2py_form')"
p3077
sI1474
S'            edit_form.process(formname=formname,'
p3078
sI1475
S'                              onvalidation=onvalidation,'
p3079
sI1476
S'                              onsuccess=onupdate,'
p3080
sI1477
S'                              next=referrer)'
p3081
sI1468
S'            check_authorization()'
p3082
sI1469
S'            table = db[request.args[-2]]'
p3083
sI1470
S"            record = table(request.args[-1]) or redirect(URL('error'))"
p3084
sI1471
S'            edit_form = SQLFORM(table,record,upload=upload,'
p3085
ssg2987
S"(query=<Table {'text': <gluon.dal.Field object at 0x073..., '_id': <gluon.dal.Field object at 0x07328670>}>, fields=[<gluon.dal.Field object at 0x07328670>, <gluon.dal.Field object at 0x07325A70>, <gluon.dal.Field object at 0x073259D0>, <gluon.dal.Field object at 0x073286F0>, <gluon.dal.Field object at 0x073284F0>, <gluon.dal.Field object at 0x07328390>, <gluon.dal.Field object at 0x07328110>, <gluon.dal.Field object at 0x073283B0>, <gluon.dal.Field object at 0x07328490>, <gluon.dal.Field object at 0x07328150>, <gluon.dal.Field object at 0x07328510>, <gluon.dal.Field object at 0x07328590>, <gluon.dal.Field object at 0x07328750>, <gluon.dal.Field object at 0x07328650>], field_id=<gluon.dal.Field object at 0x07328670>, left=None, headers={'place_review.author': <lazyT 'Reviewer'>, 'place_review.blurb': <lazyT 'Short Description'>, 'place_review.ref_id': <lazyT 'Product'>, 'place_review.subject': <lazyT 'Subject'>, 'place_review.title': <lazyT 'Title'>}, columns={'place_review.author': 15, 'place_review.blurb': 15, 'place_review.ref_id': 15, 'place_review.subject': 15, 'place_review.title': 15}, orderby=None, searchable=True, sortable=True, paginate=20, deletable=True, editable=True, details=True, selectable=None, create=True, csv=False, links=None, upload=<function <lambda> at 0x0693EDF0>, args=[], user_signature=True, maxtextlengths={}, maxtextlength=15, onvalidation=None, oncreate=None, onupdate=None, ondelete=None, sorter_icons=('[^]', '[v]'), ui={'button': 'button', 'buttonadd': 'icon plus', 'buttonback': 'icon leftarrow', 'buttondelete': 'icon trash', 'buttonedit': 'icon pen', 'buttonexport': 'icon downarrow', 'buttontable': 'icon rightarrow', 'buttontext': 'buttontext button', 'buttonview': 'icon magnifier', 'content': '', ...}, showbuttontext=True, _class='web2py_grid', formname='web2py_grid')"
p3086
sg2989
S'grid'
p3087
sa(dp3088
g2966
S'C:\\Users\\Do It\\Desktop\\web2py_opine\\web2py\\gluon\\sqlhtml.py'
p3089
sg2968
(dp3090
S'default'
p3091
S'None'
p3092
sS'field'
p3093
S'<gluon.dal.Field object at 0x07328650>'
p3094
sS'field.widget'
p3095
S'<function widget at 0x035D4E70>'
p3096
sS'inp'
p3097
S'<gluon.html.TEXTAREA object at 0x074677D0>'
p3098
ssg2974
I853
sg2975
(dp3099
I848
S"                if hasattr(field, 'widget') and field.widget:"
p3100
sI849
S'                    inp = field.widget(field, default, upload)'
p3101
sI850
S'                else:'
p3102
sI851
S'                    inp = self.widgets.upload.widget(field, default, upload)'
p3103
sI852
S"            elif hasattr(field, 'widget') and field.widget:"
p3104
sI853
S'                inp = field.widget(field, default)'
p3105
sI854
S"            elif field.type == 'boolean':"
p3106
sI855
S'                inp = self.widgets.boolean.widget(field, default)'
p3107
sI856
S'                if default:'
p3108
sI857
S"                    inpval = 'checked'"
p3109
ssg2987
S"(self=<gluon.sqlhtml.SQLFORM object at 0x07334C10>, table=<Table {'text': <gluon.dal.Field object at 0x073..., '_id': <gluon.dal.Field object at 0x07328670>}>, record=<Row {'author': 1, 'update_record': <function <l...e greatness of ...', 'subject': 'short opinion'}>, deletable=True, linkto=None, upload=<function <lambda> at 0x0693EDF0>, fields=['id', 'ref_id', 'blurb', 'author', 'photo', 'photo1', 'photo2', 'title', 'subject', 'the_good', 'the_bad', 'text', 'stars'], labels=None, col3={}, submit_button='Submit', delete_label='Check to delete:', showid=True, readonly=False, comments=True, keepopts=[], ignore_rw=False, record_id=None, formstyle='table3cols', buttons=['submit'], separator=': ', **attributes={'_class': 'web2py_form'})"
p3110
sg2989
g21
sa(dp3111
g2966
S'C:\\Users\\Do It\\Desktop\\web2py_opine\\web2py\\applications\\openopine\\models\\db.py'
p3112
sg2968
(dp3113
S'field'
p3114
S'<gluon.dal.Field object at 0x07328650>'
p3115
sS'builtinSyntaxError'
p3116
S"<type 'exceptions.SyntaxError'>"
p3117
ssg2974
I138
sg2975
(dp3118
I133
S'            options = field.requires.other.options()'
p3119
sI134
S"        elif hasattr(field.requires, 'options'):"
p3120
sI135
S'            opts = []'
p3121
sI136
S'            options = field.requires.options()'
p3122
sI137
S'        else:'
p3123
sI138
S"            raise SyntaxError, 'widget cannot determine options of %s' % field"
p3124
sI139
S"        opts += [TD(INPUT(_type='radio', _name=field.name,"
p3125
sI140
S"                          _value=k, value=value), '') for (k, v) in options]"
p3126
sI141
S"        return TABLE(TR(*(['low']+opts+['high'])), **attr)"
p3127
sI142
S''
ssg2987
S'(field=<gluon.dal.Field object at 0x07328650>, value=None, **attributes={})'
p3128
sg2989
S'widget'
p3129
sasS'pyver'
p3130
S'Python 2.5.4: C:\\Python25\\python.exe'
p3131
sS'session'
p3132
g60
(g61
g62
NtRp3133
(dp3134
g65
(dp3135
sg67
(lp3136
g60
(g69
g62
NtRp3137
(dp3138
g65
(dp3139
g73
I5
ssg74
Nsg67
(lp3140
g60
(g76
g62
NtRp3141
(dp3142
g65
(dp3143
sg74
g3137
sg67
(lp3144
g60
(g81
g62
NtRp3145
(dp3146
g65
(dp3147
g85
g86
ssg74
g3141
sg67
(lp3148
S'auth'
p3149
asbag60
(g81
g62
NtRp3150
(dp3151
g65
(dp3152
g92
g93
ssg74
g3141
sg67
(lp3153
S':'
asbag60
(g81
g62
NtRp3154
(dp3155
g65
(dp3156
sg74
g3141
sg67
(lp3157
g60
(g61
g62
NtRp3158
(dp3159
g65
(dp3160
g73
I5
ssg74
g3154
sg67
(lp3161
g60
(g69
g62
NtRp3162
(dp3163
g65
(dp3164
g73
I4
ssg74
Nsg67
(lp3165
g60
(g76
g62
NtRp3166
(dp3167
g65
(dp3168
sg74
g3162
sg67
(lp3169
g60
(g81
g62
NtRp3170
(dp3171
g65
(dp3172
g85
g86
ssg74
g3166
sg67
(lp3173
S'expiration'
p3174
asbag60
(g81
g62
NtRp3175
(dp3176
g65
(dp3177
g92
g93
ssg74
g3166
sg67
(lp3178
S':'
asbag60
(g81
g62
NtRp3179
(dp3180
g65
(dp3181
sg74
g3166
sg67
(lp3182
g60
(g61
g62
NtRp3183
(dp3184
g65
(dp3185
g73
I4
ssg74
g3179
sg67
(lp3186
S'2592000'
p3187
asbasbasbag60
(g76
g62
NtRp3188
(dp3189
g65
(dp3190
sg74
g3162
sg67
(lp3191
g60
(g81
g62
NtRp3192
(dp3193
g65
(dp3194
g85
g86
ssg74
g3188
sg67
(lp3195
S'hmac_key'
p3196
asbag60
(g81
g62
NtRp3197
(dp3198
g65
(dp3199
g92
g93
ssg74
g3188
sg67
(lp3200
S':'
asbag60
(g81
g62
NtRp3201
(dp3202
g65
(dp3203
sg74
g3188
sg67
(lp3204
g60
(g61
g62
NtRp3205
(dp3206
g65
(dp3207
g73
I4
ssg74
g3201
sg67
(lp3208
S'66f7d3ad-2bba-4388-b875-3cf7427d46c4'
p3209
asbasbasbag60
(g76
g62
NtRp3210
(dp3211
g65
(dp3212
sg74
g3162
sg67
(lp3213
g60
(g81
g62
NtRp3214
(dp3215
g65
(dp3216
g85
g86
ssg74
g3210
sg67
(lp3217
S'last_visit'
p3218
asbag60
(g81
g62
NtRp3219
(dp3220
g65
(dp3221
g92
g93
ssg74
g3210
sg67
(lp3222
S':'
asbag60
(g81
g62
NtRp3223
(dp3224
g65
(dp3225
sg74
g3210
sg67
(lp3226
g60
(g61
g62
NtRp3227
(dp3228
g65
(dp3229
g73
I4
ssg74
g3223
sg67
(lp3230
S'datetime.datetime(2011, 11, 21, 9, 57, 4, 486000)'
p3231
asbasbasbag60
(g76
g62
NtRp3232
(dp3233
g65
(dp3234
sg74
g3162
sg67
(lp3235
g60
(g81
g62
NtRp3236
(dp3237
g65
(dp3238
g85
g86
ssg74
g3232
sg67
(lp3239
S'remember'
p3240
asbag60
(g81
g62
NtRp3241
(dp3242
g65
(dp3243
g92
g93
ssg74
g3232
sg67
(lp3244
S':'
asbag60
(g81
g62
NtRp3245
(dp3246
g65
(dp3247
sg74
g3232
sg67
(lp3248
g60
(g61
g62
NtRp3249
(dp3250
g65
(dp3251
g73
I4
ssg74
g3245
sg67
(lp3252
g103
asbasbasbag60
(g76
g62
NtRp3253
(dp3254
g65
(dp3255
sg74
g3162
sg67
(lp3256
g60
(g81
g62
NtRp3257
(dp3258
g65
(dp3259
g85
g86
ssg74
g3253
sg67
(lp3260
S'user'
p3261
asbag60
(g81
g62
NtRp3262
(dp3263
g65
(dp3264
g92
g93
ssg74
g3253
sg67
(lp3265
S':'
asbag60
(g81
g62
NtRp3266
(dp3267
g65
(dp3268
sg74
g3253
sg67
(lp3269
g60
(g61
g62
NtRp3270
(dp3271
g65
(dp3272
g73
I4
ssg74
g3266
sg67
(lp3273
g60
(g69
g62
NtRp3274
(dp3275
g65
(dp3276
g73
I3
ssg74
Nsg67
(lp3277
g60
(g76
g62
NtRp3278
(dp3279
g65
(dp3280
sg74
g3274
sg67
(lp3281
g60
(g81
g62
NtRp3282
(dp3283
g65
(dp3284
g85
g86
ssg74
g3278
sg67
(lp3285
S'email'
p3286
asbag60
(g81
g62
NtRp3287
(dp3288
g65
(dp3289
g92
g93
ssg74
g3278
sg67
(lp3290
S':'
asbag60
(g81
g62
NtRp3291
(dp3292
g65
(dp3293
sg74
g3278
sg67
(lp3294
g60
(g61
g62
NtRp3295
(dp3296
g65
(dp3297
g73
I3
ssg74
g3291
sg67
(lp3298
S'inquiry@example.com'
p3299
asbasbasbag60
(g76
g62
NtRp3300
(dp3301
g65
(dp3302
sg74
g3274
sg67
(lp3303
g60
(g81
g62
NtRp3304
(dp3305
g65
(dp3306
g85
g86
ssg74
g3300
sg67
(lp3307
S'first_name'
p3308
asbag60
(g81
g62
NtRp3309
(dp3310
g65
(dp3311
g92
g93
ssg74
g3300
sg67
(lp3312
S':'
asbag60
(g81
g62
NtRp3313
(dp3314
g65
(dp3315
sg74
g3300
sg67
(lp3316
g60
(g61
g62
NtRp3317
(dp3318
g65
(dp3319
g73
I3
ssg74
g3313
sg67
(lp3320
S'Admin'
p3321
asbasbasbag60
(g76
g62
NtRp3322
(dp3323
g65
(dp3324
sg74
g3274
sg67
(lp3325
g60
(g81
g62
NtRp3326
(dp3327
g65
(dp3328
g85
g86
ssg74
g3322
sg67
(lp3329
S'id'
p3330
asbag60
(g81
g62
NtRp3331
(dp3332
g65
(dp3333
g92
g93
ssg74
g3322
sg67
(lp3334
S':'
asbag60
(g81
g62
NtRp3335
(dp3336
g65
(dp3337
sg74
g3322
sg67
(lp3338
g60
(g61
g62
NtRp3339
(dp3340
g65
(dp3341
g73
I3
ssg74
g3335
sg67
(lp3342
S'1'
asbasbasbag60
(g76
g62
NtRp3343
(dp3344
g65
(dp3345
sg74
g3274
sg67
(lp3346
g60
(g81
g62
NtRp3347
(dp3348
g65
(dp3349
g85
g86
ssg74
g3343
sg67
(lp3350
S'last_name'
p3351
asbag60
(g81
g62
NtRp3352
(dp3353
g65
(dp3354
g92
g93
ssg74
g3343
sg67
(lp3355
S':'
asbag60
(g81
g62
NtRp3356
(dp3357
g65
(dp3358
sg74
g3343
sg67
(lp3359
g60
(g61
g62
NtRp3360
(dp3361
g65
(dp3362
g73
I3
ssg74
g3356
sg67
(lp3363
S'Reviewer'
p3364
asbasbasbag60
(g76
g62
NtRp3365
(dp3366
g65
(dp3367
sg74
g3274
sg67
(lp3368
g60
(g81
g62
NtRp3369
(dp3370
g65
(dp3371
g85
g86
ssg74
g3365
sg67
(lp3372
S'password'
p3373
asbag60
(g81
g62
NtRp3374
(dp3375
g65
(dp3376
g92
g93
ssg74
g3365
sg67
(lp3377
S':'
asbag60
(g81
g62
NtRp3378
(dp3379
g65
(dp3380
sg74
g3365
sg67
(lp3381
g60
(g61
g62
NtRp3382
(dp3383
g65
(dp3384
g73
I3
ssg74
g3378
sg67
(lp3385
S'd9112a75303bdd71a94bf896ec050b70'
p3386
asbasbasbag60
(g76
g62
NtRp3387
(dp3388
g65
(dp3389
sg74
g3274
sg67
(lp3390
g60
(g81
g62
NtRp3391
(dp3392
g65
(dp3393
g85
g86
ssg74
g3387
sg67
(lp3394
S'registration_key'
p3395
asbag60
(g81
g62
NtRp3396
(dp3397
g65
(dp3398
g92
g93
ssg74
g3387
sg67
(lp3399
S':'
asbag60
(g81
g62
NtRp3400
(dp3401
g65
(dp3402
sg74
g3387
sg67
(lp3403
g60
(g61
g62
NtRp3404
(dp3405
g65
(dp3406
g73
I3
ssg74
g3400
sg67
(lp3407
S''
asbasbasbag60
(g76
g62
NtRp3408
(dp3409
g65
(dp3410
sg74
g3274
sg67
(lp3411
g60
(g81
g62
NtRp3412
(dp3413
g65
(dp3414
g85
g86
ssg74
g3408
sg67
(lp3415
S'reset_password_key'
p3416
asbag60
(g81
g62
NtRp3417
(dp3418
g65
(dp3419
g92
g93
ssg74
g3408
sg67
(lp3420
S':'
asbag60
(g81
g62
NtRp3421
(dp3422
g65
(dp3423
sg74
g3408
sg67
(lp3424
g60
(g61
g62
NtRp3425
(dp3426
g65
(dp3427
g73
I3
ssg74
g3421
sg67
(lp3428
S''
asbasbasbasbasbasbasbasbasbasbasbag60
(g76
g62
NtRp3429
(dp3430
g65
(dp3431
sg74
g3137
sg67
(lp3432
g60
(g81
g62
NtRp3433
(dp3434
g65
(dp3435
g85
g86
ssg74
g3429
sg67
(lp3436
S'tablename'
p3437
asbag60
(g81
g62
NtRp3438
(dp3439
g65
(dp3440
g92
g93
ssg74
g3429
sg67
(lp3441
S':'
asbag60
(g81
g62
NtRp3442
(dp3443
g65
(dp3444
sg74
g3429
sg67
(lp3445
g60
(g61
g62
NtRp3446
(dp3447
g65
(dp3448
g73
I5
ssg74
g3442
sg67
(lp3449
S'place'
p3450
asbasbasbasbasbsS'etype'
p3451
S"<type 'exceptions.SyntaxError'>"
p3452
sS'date'
p3453
S'Mon Nov 21 09:57:17 2011'
p3454
sS'response'
p3455
g60
(g61
g62
NtRp3456
(dp3457
g65
(dp3458
sg67
(lp3459
g60
(g69
g62
NtRp3460
(dp3461
g65
(dp3462
g73
I5
ssg74
Nsg67
(lp3463
g60
(g76
g62
NtRp3464
(dp3465
g65
(dp3466
sg74
g3460
sg67
(lp3467
g60
(g81
g62
NtRp3468
(dp3469
g65
(dp3470
g85
g86
ssg74
g3464
sg67
(lp3471
g196
asbag60
(g81
g62
NtRp3472
(dp3473
g65
(dp3474
g92
g93
ssg74
g3464
sg67
(lp3475
S':'
asbag60
(g81
g62
NtRp3476
(dp3477
g65
(dp3478
sg74
g3464
sg67
(lp3479
g60
(g61
g62
NtRp3480
(dp3481
g65
(dp3482
g73
I5
ssg74
g3476
sg67
(lp3483
S'<cStringIO.StringO object at 0x0712E040>'
p3484
asbasbasbag60
(g76
g62
NtRp3485
(dp3486
g65
(dp3487
sg74
g3460
sg67
(lp3488
g60
(g81
g62
NtRp3489
(dp3490
g65
(dp3491
g85
g86
ssg74
g3485
sg67
(lp3492
g262
asbag60
(g81
g62
NtRp3493
(dp3494
g65
(dp3495
g92
g93
ssg74
g3485
sg67
(lp3496
S':'
asbag60
(g81
g62
NtRp3497
(dp3498
g65
(dp3499
sg74
g3485
sg67
(lp3500
g60
(g61
g62
NtRp3501
(dp3502
g65
(dp3503
g73
I5
ssg74
g3497
sg67
(lp3504
g60
(g69
g62
NtRp3505
(dp3506
g65
(dp3507
g73
I4
ssg74
Nsg67
(lp3508
g60
(g76
g62
NtRp3509
(dp3510
g65
(dp3511
sg74
g3505
sg67
(lp3512
g60
(g81
g62
NtRp3513
(dp3514
g65
(dp3515
g85
g86
ssg74
g3509
sg67
(lp3516
S'session_id_openopine'
p3517
asbag60
(g81
g62
NtRp3518
(dp3519
g65
(dp3520
g92
g93
ssg74
g3509
sg67
(lp3521
S':'
asbag60
(g81
g62
NtRp3522
(dp3523
g65
(dp3524
sg74
g3509
sg67
(lp3525
g60
(g61
g62
NtRp3526
(dp3527
g65
(dp3528
g73
I4
ssg74
g3522
sg67
(lp3529
g60
(g69
g62
NtRp3530
(dp3531
g65
(dp3532
g73
I3
ssg74
Nsg67
(lp3533
g60
(g76
g62
NtRp3534
(dp3535
g65
(dp3536
sg74
g3530
sg67
(lp3537
g60
(g81
g62
NtRp3538
(dp3539
g65
(dp3540
g85
g86
ssg74
g3534
sg67
(lp3541
g312
asbag60
(g81
g62
NtRp3542
(dp3543
g65
(dp3544
g92
g93
ssg74
g3534
sg67
(lp3545
S':'
asbag60
(g81
g62
NtRp3546
(dp3547
g65
(dp3548
sg74
g3534
sg67
(lp3549
g60
(g61
g62
NtRp3550
(dp3551
g65
(dp3552
g73
I3
ssg74
g3546
sg67
(lp3553
S''
asbasbasbag60
(g76
g62
NtRp3554
(dp3555
g65
(dp3556
sg74
g3530
sg67
(lp3557
g60
(g81
g62
NtRp3558
(dp3559
g65
(dp3560
g85
g86
ssg74
g3554
sg67
(lp3561
g333
asbag60
(g81
g62
NtRp3562
(dp3563
g65
(dp3564
g92
g93
ssg74
g3554
sg67
(lp3565
S':'
asbag60
(g81
g62
NtRp3566
(dp3567
g65
(dp3568
sg74
g3554
sg67
(lp3569
g60
(g61
g62
NtRp3570
(dp3571
g65
(dp3572
g73
I3
ssg74
g3566
sg67
(lp3573
S''
asbasbasbag60
(g76
g62
NtRp3574
(dp3575
g65
(dp3576
sg74
g3530
sg67
(lp3577
g60
(g81
g62
NtRp3578
(dp3579
g65
(dp3580
g85
g86
ssg74
g3574
sg67
(lp3581
g354
asbag60
(g81
g62
NtRp3582
(dp3583
g65
(dp3584
g92
g93
ssg74
g3574
sg67
(lp3585
S':'
asbag60
(g81
g62
NtRp3586
(dp3587
g65
(dp3588
sg74
g3574
sg67
(lp3589
g60
(g61
g62
NtRp3590
(dp3591
g65
(dp3592
g73
I3
ssg74
g3586
sg67
(lp3593
S''
asbasbasbag60
(g76
g62
NtRp3594
(dp3595
g65
(dp3596
sg74
g3530
sg67
(lp3597
g60
(g81
g62
NtRp3598
(dp3599
g65
(dp3600
g85
g86
ssg74
g3594
sg67
(lp3601
g375
asbag60
(g81
g62
NtRp3602
(dp3603
g65
(dp3604
g92
g93
ssg74
g3594
sg67
(lp3605
S':'
asbag60
(g81
g62
NtRp3606
(dp3607
g65
(dp3608
sg74
g3594
sg67
(lp3609
g60
(g61
g62
NtRp3610
(dp3611
g65
(dp3612
g73
I3
ssg74
g3606
sg67
(lp3613
S''
asbasbasbag60
(g76
g62
NtRp3614
(dp3615
g65
(dp3616
sg74
g3530
sg67
(lp3617
g60
(g81
g62
NtRp3618
(dp3619
g65
(dp3620
g85
g86
ssg74
g3614
sg67
(lp3621
g396
asbag60
(g81
g62
NtRp3622
(dp3623
g65
(dp3624
g92
g93
ssg74
g3614
sg67
(lp3625
S':'
asbag60
(g81
g62
NtRp3626
(dp3627
g65
(dp3628
sg74
g3614
sg67
(lp3629
g60
(g61
g62
NtRp3630
(dp3631
g65
(dp3632
g73
I3
ssg74
g3626
sg67
(lp3633
S'/'
asbasbasbag60
(g76
g62
NtRp3634
(dp3635
g65
(dp3636
sg74
g3530
sg67
(lp3637
g60
(g81
g62
NtRp3638
(dp3639
g65
(dp3640
g85
g86
ssg74
g3634
sg67
(lp3641
g417
asbag60
(g81
g62
NtRp3642
(dp3643
g65
(dp3644
g92
g93
ssg74
g3634
sg67
(lp3645
S':'
asbag60
(g81
g62
NtRp3646
(dp3647
g65
(dp3648
sg74
g3634
sg67
(lp3649
g60
(g61
g62
NtRp3650
(dp3651
g65
(dp3652
g73
I3
ssg74
g3646
sg67
(lp3653
S''
asbasbasbag60
(g76
g62
NtRp3654
(dp3655
g65
(dp3656
sg74
g3530
sg67
(lp3657
g60
(g81
g62
NtRp3658
(dp3659
g65
(dp3660
g85
g86
ssg74
g3654
sg67
(lp3661
g438
asbag60
(g81
g62
NtRp3662
(dp3663
g65
(dp3664
g92
g93
ssg74
g3654
sg67
(lp3665
S':'
asbag60
(g81
g62
NtRp3666
(dp3667
g65
(dp3668
sg74
g3654
sg67
(lp3669
g60
(g61
g62
NtRp3670
(dp3671
g65
(dp3672
g73
I3
ssg74
g3666
sg67
(lp3673
S''
asbasbasbasbasbasbasbasbasbasbasbag60
(g76
g62
NtRp3674
(dp3675
g65
(dp3676
sg74
g3460
sg67
(lp3677
g60
(g81
g62
NtRp3678
(dp3679
g65
(dp3680
g85
g86
ssg74
g3674
sg67
(lp3681
S'files'
p3682
asbag60
(g81
g62
NtRp3683
(dp3684
g65
(dp3685
g92
g93
ssg74
g3674
sg67
(lp3686
S':'
asbag60
(g81
g62
NtRp3687
(dp3688
g65
(dp3689
sg74
g3674
sg67
(lp3690
g60
(g61
g62
NtRp3691
(dp3692
g65
(dp3693
g73
I5
ssg74
g3687
sg67
(lp3694
g60
(g69
g62
NtRp3695
(dp3696
g65
(dp3697
g73
I4
ssg74
Nsg67
(lp3698
sbasbasbasbag60
(g76
g62
NtRp3699
(dp3700
g65
(dp3701
sg74
g3460
sg67
(lp3702
g60
(g81
g62
NtRp3703
(dp3704
g65
(dp3705
g85
g86
ssg74
g3699
sg67
(lp3706
S'flash'
p3707
asbag60
(g81
g62
NtRp3708
(dp3709
g65
(dp3710
g92
g93
ssg74
g3699
sg67
(lp3711
S':'
asbag60
(g81
g62
NtRp3712
(dp3713
g65
(dp3714
sg74
g3699
sg67
(lp3715
g60
(g61
g62
NtRp3716
(dp3717
g65
(dp3718
g73
I5
ssg74
g3712
sg67
(lp3719
S''
asbasbasbag60
(g76
g62
NtRp3720
(dp3721
g65
(dp3722
sg74
g3460
sg67
(lp3723
g60
(g81
g62
NtRp3724
(dp3725
g65
(dp3726
g85
g86
ssg74
g3720
sg67
(lp3727
S'generic_patterns'
p3728
asbag60
(g81
g62
NtRp3729
(dp3730
g65
(dp3731
g92
g93
ssg74
g3720
sg67
(lp3732
S':'
asbag60
(g81
g62
NtRp3733
(dp3734
g65
(dp3735
sg74
g3720
sg67
(lp3736
g60
(g61
g62
NtRp3737
(dp3738
g65
(dp3739
g73
I5
ssg74
g3733
sg67
(lp3740
g60
(g69
g62
NtRp3741
(dp3742
g65
(dp3743
g73
I4
ssg74
Nsg67
(lp3744
g60
(g76
g62
NtRp3745
(dp3746
g65
(dp3747
sg74
g3741
sg67
(lp3748
g60
(g81
g62
NtRp3749
(dp3750
g65
(dp3751
sg74
g3745
sg67
(lp3752
g60
(g61
g62
NtRp3753
(dp3754
g65
(dp3755
g73
I4
ssg74
g3749
sg67
(lp3756
S'*'
asbasbasbasbasbasbasbag60
(g76
g62
NtRp3757
(dp3758
g65
(dp3759
sg74
g3460
sg67
(lp3760
g60
(g81
g62
NtRp3761
(dp3762
g65
(dp3763
g85
g86
ssg74
g3757
sg67
(lp3764
S'headers'
p3765
asbag60
(g81
g62
NtRp3766
(dp3767
g65
(dp3768
g92
g93
ssg74
g3757
sg67
(lp3769
S':'
asbag60
(g81
g62
NtRp3770
(dp3771
g65
(dp3772
sg74
g3757
sg67
(lp3773
g60
(g61
g62
NtRp3774
(dp3775
g65
(dp3776
g73
I5
ssg74
g3770
sg67
(lp3777
g60
(g69
g62
NtRp3778
(dp3779
g65
(dp3780
g73
I4
ssg74
Nsg67
(lp3781
g60
(g76
g62
NtRp3782
(dp3783
g65
(dp3784
sg74
g3778
sg67
(lp3785
g60
(g81
g62
NtRp3786
(dp3787
g65
(dp3788
g85
g86
ssg74
g3782
sg67
(lp3789
S'Cache-Control'
p3790
asbag60
(g81
g62
NtRp3791
(dp3792
g65
(dp3793
g92
g93
ssg74
g3782
sg67
(lp3794
S':'
asbag60
(g81
g62
NtRp3795
(dp3796
g65
(dp3797
sg74
g3782
sg67
(lp3798
g60
(g61
g62
NtRp3799
(dp3800
g65
(dp3801
g73
I4
ssg74
g3795
sg67
(lp3802
S'no-store, no-cache, must-revalidate, post-check=0, pre-check=0'
p3803
asbasbasbag60
(g76
g62
NtRp3804
(dp3805
g65
(dp3806
sg74
g3778
sg67
(lp3807
g60
(g81
g62
NtRp3808
(dp3809
g65
(dp3810
g85
g86
ssg74
g3804
sg67
(lp3811
S'Content-Type'
p3812
asbag60
(g81
g62
NtRp3813
(dp3814
g65
(dp3815
g92
g93
ssg74
g3804
sg67
(lp3816
S':'
asbag60
(g81
g62
NtRp3817
(dp3818
g65
(dp3819
sg74
g3804
sg67
(lp3820
g60
(g61
g62
NtRp3821
(dp3822
g65
(dp3823
g73
I4
ssg74
g3817
sg67
(lp3824
S'text/html; charset=utf-8'
p3825
asbasbasbag60
(g76
g62
NtRp3826
(dp3827
g65
(dp3828
sg74
g3778
sg67
(lp3829
g60
(g81
g62
NtRp3830
(dp3831
g65
(dp3832
g85
g86
ssg74
g3826
sg67
(lp3833
S'Expires'
p3834
asbag60
(g81
g62
NtRp3835
(dp3836
g65
(dp3837
g92
g93
ssg74
g3826
sg67
(lp3838
S':'
asbag60
(g81
g62
NtRp3839
(dp3840
g65
(dp3841
sg74
g3826
sg67
(lp3842
g60
(g61
g62
NtRp3843
(dp3844
g65
(dp3845
g73
I4
ssg74
g3839
sg67
(lp3846
S'Mon, 21 Nov 2011 08:57:17 GMT'
p3847
asbasbasbag60
(g76
g62
NtRp3848
(dp3849
g65
(dp3850
sg74
g3778
sg67
(lp3851
g60
(g81
g62
NtRp3852
(dp3853
g65
(dp3854
g85
g86
ssg74
g3848
sg67
(lp3855
S'Pragma'
p3856
asbag60
(g81
g62
NtRp3857
(dp3858
g65
(dp3859
g92
g93
ssg74
g3848
sg67
(lp3860
S':'
asbag60
(g81
g62
NtRp3861
(dp3862
g65
(dp3863
sg74
g3848
sg67
(lp3864
g60
(g61
g62
NtRp3865
(dp3866
g65
(dp3867
g73
I4
ssg74
g3861
sg67
(lp3868
S'no-cache'
p3869
asbasbasbag60
(g76
g62
NtRp3870
(dp3871
g65
(dp3872
sg74
g3778
sg67
(lp3873
g60
(g81
g62
NtRp3874
(dp3875
g65
(dp3876
g85
g86
ssg74
g3870
sg67
(lp3877
S'X-Powered-By'
p3878
asbag60
(g81
g62
NtRp3879
(dp3880
g65
(dp3881
g92
g93
ssg74
g3870
sg67
(lp3882
S':'
asbag60
(g81
g62
NtRp3883
(dp3884
g65
(dp3885
sg74
g3870
sg67
(lp3886
g60
(g61
g62
NtRp3887
(dp3888
g65
(dp3889
g73
I4
ssg74
g3883
sg67
(lp3890
S'web2py'
p3891
asbasbasbasbasbasbasbag60
(g76
g62
NtRp3892
(dp3893
g65
(dp3894
sg74
g3460
sg67
(lp3895
g60
(g81
g62
NtRp3896
(dp3897
g65
(dp3898
g85
g86
ssg74
g3892
sg67
(lp3899
S'menu'
p3900
asbag60
(g81
g62
NtRp3901
(dp3902
g65
(dp3903
g92
g93
ssg74
g3892
sg67
(lp3904
S':'
asbag60
(g81
g62
NtRp3905
(dp3906
g65
(dp3907
sg74
g3892
sg67
(lp3908
g60
(g61
g62
NtRp3909
(dp3910
g65
(dp3911
g73
I5
ssg74
g3905
sg67
(lp3912
g60
(g69
g62
NtRp3913
(dp3914
g65
(dp3915
g73
I4
ssg74
Nsg67
(lp3916
g60
(g76
g62
NtRp3917
(dp3918
g65
(dp3919
sg74
g3913
sg67
(lp3920
g60
(g81
g62
NtRp3921
(dp3922
g65
(dp3923
sg74
g3917
sg67
(lp3924
g60
(g61
g62
NtRp3925
(dp3926
g65
(dp3927
g73
I4
ssg74
g3921
sg67
(lp3928
g60
(g69
g62
NtRp3929
(dp3930
g65
(dp3931
g73
I3
ssg74
Nsg67
(lp3932
g60
(g76
g62
NtRp3933
(dp3934
g65
(dp3935
sg74
g3929
sg67
(lp3936
g60
(g81
g62
NtRp3937
(dp3938
g65
(dp3939
sg74
g3933
sg67
(lp3940
g60
(g61
g62
NtRp3941
(dp3942
g65
(dp3943
g73
I3
ssg74
g3937
sg67
(lp3944
cgluon.languages
lazyT_unpickle
p3945
(S's\t\x00\x00\x00OpenOpine'
tRp3946
asbasbasbag60
(g76
g62
NtRp3947
(dp3948
g65
(dp3949
sg74
g3929
sg67
(lp3950
g60
(g81
g62
NtRp3951
(dp3952
g65
(dp3953
sg74
g3947
sg67
(lp3954
g60
(g61
g62
NtRp3955
(dp3956
g65
(dp3957
g73
I3
ssg74
g3951
sg67
(lp3958
g103
asbasbasbag60
(g76
g62
NtRp3959
(dp3960
g65
(dp3961
sg74
g3929
sg67
(lp3962
g60
(g81
g62
NtRp3963
(dp3964
g65
(dp3965
sg74
g3959
sg67
(lp3966
g60
(g61
g62
NtRp3967
(dp3968
g65
(dp3969
g73
I3
ssg74
g3963
sg67
(lp3970
S'/openopine/default/index'
p3971
asbasbasbag60
(g76
g62
NtRp3972
(dp3973
g65
(dp3974
sg74
g3929
sg67
(lp3975
g60
(g81
g62
NtRp3976
(dp3977
g65
(dp3978
sg74
g3972
sg67
(lp3979
g60
(g61
g62
NtRp3980
(dp3981
g65
(dp3982
g73
I3
ssg74
g3976
sg67
(lp3983
g60
(g69
g62
NtRp3984
(dp3985
g65
(dp3986
g73
I2
ssg74
Nsg67
(lp3987
sbasbasbasbasbasbasbasbag60
(g76
g62
NtRp3988
(dp3989
g65
(dp3990
sg74
g3913
sg67
(lp3991
g60
(g81
g62
NtRp3992
(dp3993
g65
(dp3994
sg74
g3988
sg67
(lp3995
g60
(g61
g62
NtRp3996
(dp3997
g65
(dp3998
g73
I4
ssg74
g3992
sg67
(lp3999
g60
(g69
g62
NtRp4000
(dp4001
g65
(dp4002
g73
I3
ssg74
Nsg67
(lp4003
g60
(g76
g62
NtRp4004
(dp4005
g65
(dp4006
sg74
g4000
sg67
(lp4007
g60
(g81
g62
NtRp4008
(dp4009
g65
(dp4010
sg74
g4004
sg67
(lp4011
g60
(g61
g62
NtRp4012
(dp4013
g65
(dp4014
g73
I3
ssg74
g4008
sg67
(lp4015
g3945
(S's\t\x00\x00\x00Reviewers'
tRp4016
asbasbasbag60
(g76
g62
NtRp4017
(dp4018
g65
(dp4019
sg74
g4000
sg67
(lp4020
g60
(g81
g62
NtRp4021
(dp4022
g65
(dp4023
sg74
g4017
sg67
(lp4024
g60
(g61
g62
NtRp4025
(dp4026
g65
(dp4027
g73
I3
ssg74
g4021
sg67
(lp4028
g103
asbasbasbag60
(g76
g62
NtRp4029
(dp4030
g65
(dp4031
sg74
g4000
sg67
(lp4032
g60
(g81
g62
NtRp4033
(dp4034
g65
(dp4035
sg74
g4029
sg67
(lp4036
g60
(g61
g62
NtRp4037
(dp4038
g65
(dp4039
g73
I3
ssg74
g4033
sg67
(lp4040
S'/openopine/default/reviewers'
p4041
asbasbasbag60
(g76
g62
NtRp4042
(dp4043
g65
(dp4044
sg74
g4000
sg67
(lp4045
g60
(g81
g62
NtRp4046
(dp4047
g65
(dp4048
sg74
g4042
sg67
(lp4049
g60
(g61
g62
NtRp4050
(dp4051
g65
(dp4052
g73
I3
ssg74
g4046
sg67
(lp4053
g60
(g69
g62
NtRp4054
(dp4055
g65
(dp4056
g73
I2
ssg74
Nsg67
(lp4057
sbasbasbasbasbasbasbasbag60
(g76
g62
NtRp4058
(dp4059
g65
(dp4060
sg74
g3913
sg67
(lp4061
g60
(g81
g62
NtRp4062
(dp4063
g65
(dp4064
sg74
g4058
sg67
(lp4065
g60
(g61
g62
NtRp4066
(dp4067
g65
(dp4068
g73
I4
ssg74
g4062
sg67
(lp4069
g60
(g69
g62
NtRp4070
(dp4071
g65
(dp4072
g73
I3
ssg74
Nsg67
(lp4073
g60
(g76
g62
NtRp4074
(dp4075
g65
(dp4076
sg74
g4070
sg67
(lp4077
g60
(g81
g62
NtRp4078
(dp4079
g65
(dp4080
sg74
g4074
sg67
(lp4081
g60
(g61
g62
NtRp4082
(dp4083
g65
(dp4084
g73
I3
ssg74
g4078
sg67
(lp4085
g3945
(S's\x08\x00\x00\x00Profiles'
tRp4086
asbasbasbag60
(g76
g62
NtRp4087
(dp4088
g65
(dp4089
sg74
g4070
sg67
(lp4090
g60
(g81
g62
NtRp4091
(dp4092
g65
(dp4093
sg74
g4087
sg67
(lp4094
g60
(g61
g62
NtRp4095
(dp4096
g65
(dp4097
g73
I3
ssg74
g4091
sg67
(lp4098
g103
asbasbasbag60
(g76
g62
NtRp4099
(dp4100
g65
(dp4101
sg74
g4070
sg67
(lp4102
g60
(g81
g62
NtRp4103
(dp4104
g65
(dp4105
sg74
g4099
sg67
(lp4106
g60
(g61
g62
NtRp4107
(dp4108
g65
(dp4109
g73
I3
ssg74
g4103
sg67
(lp4110
S'/openopine/default/profiles?tbl=place'
p4111
asbasbasbag60
(g76
g62
NtRp4112
(dp4113
g65
(dp4114
sg74
g4070
sg67
(lp4115
g60
(g81
g62
NtRp4116
(dp4117
g65
(dp4118
sg74
g4112
sg67
(lp4119
g60
(g61
g62
NtRp4120
(dp4121
g65
(dp4122
g73
I3
ssg74
g4116
sg67
(lp4123
g60
(g69
g62
NtRp4124
(dp4125
g65
(dp4126
g73
I2
ssg74
Nsg67
(lp4127
sbasbasbasbasbasbasbasbag60
(g76
g62
NtRp4128
(dp4129
g65
(dp4130
sg74
g3913
sg67
(lp4131
g60
(g81
g62
NtRp4132
(dp4133
g65
(dp4134
sg74
g4128
sg67
(lp4135
g60
(g61
g62
NtRp4136
(dp4137
g65
(dp4138
g73
I4
ssg74
g4132
sg67
(lp4139
g60
(g69
g62
NtRp4140
(dp4141
g65
(dp4142
g73
I3
ssg74
Nsg67
(lp4143
g60
(g76
g62
NtRp4144
(dp4145
g65
(dp4146
sg74
g4140
sg67
(lp4147
g60
(g81
g62
NtRp4148
(dp4149
g65
(dp4150
sg74
g4144
sg67
(lp4151
g60
(g61
g62
NtRp4152
(dp4153
g65
(dp4154
g73
I3
ssg74
g4148
sg67
(lp4155
g3945
(S's\x07\x00\x00\x00Reviews'
tRp4156
asbasbasbag60
(g76
g62
NtRp4157
(dp4158
g65
(dp4159
sg74
g4140
sg67
(lp4160
g60
(g81
g62
NtRp4161
(dp4162
g65
(dp4163
sg74
g4157
sg67
(lp4164
g60
(g61
g62
NtRp4165
(dp4166
g65
(dp4167
g73
I3
ssg74
g4161
sg67
(lp4168
g103
asbasbasbag60
(g76
g62
NtRp4169
(dp4170
g65
(dp4171
sg74
g4140
sg67
(lp4172
g60
(g81
g62
NtRp4173
(dp4174
g65
(dp4175
sg74
g4169
sg67
(lp4176
g60
(g61
g62
NtRp4177
(dp4178
g65
(dp4179
g73
I3
ssg74
g4173
sg67
(lp4180
S'/openopine/default/reviews?tbl=place'
p4181
asbasbasbag60
(g76
g62
NtRp4182
(dp4183
g65
(dp4184
sg74
g4140
sg67
(lp4185
g60
(g81
g62
NtRp4186
(dp4187
g65
(dp4188
sg74
g4182
sg67
(lp4189
g60
(g61
g62
NtRp4190
(dp4191
g65
(dp4192
g73
I3
ssg74
g4186
sg67
(lp4193
g60
(g69
g62
NtRp4194
(dp4195
g65
(dp4196
g73
I2
ssg74
Nsg67
(lp4197
sbasbasbasbasbasbasbasbag60
(g76
g62
NtRp4198
(dp4199
g65
(dp4200
sg74
g3913
sg67
(lp4201
g60
(g81
g62
NtRp4202
(dp4203
g65
(dp4204
sg74
g4198
sg67
(lp4205
g60
(g61
g62
NtRp4206
(dp4207
g65
(dp4208
g73
I4
ssg74
g4202
sg67
(lp4209
g60
(g69
g62
NtRp4210
(dp4211
g65
(dp4212
g73
I3
ssg74
Nsg67
(lp4213
g60
(g76
g62
NtRp4214
(dp4215
g65
(dp4216
sg74
g4210
sg67
(lp4217
g60
(g81
g62
NtRp4218
(dp4219
g65
(dp4220
sg74
g4214
sg67
(lp4221
g60
(g61
g62
NtRp4222
(dp4223
g65
(dp4224
g73
I3
ssg74
g4218
sg67
(lp4225
g3945
(S's\x0c\x00\x00\x00Post Profile'
tRp4226
asbasbasbag60
(g76
g62
NtRp4227
(dp4228
g65
(dp4229
sg74
g4210
sg67
(lp4230
g60
(g81
g62
NtRp4231
(dp4232
g65
(dp4233
sg74
g4227
sg67
(lp4234
g60
(g61
g62
NtRp4235
(dp4236
g65
(dp4237
g73
I3
ssg74
g4231
sg67
(lp4238
g103
asbasbasbag60
(g76
g62
NtRp4239
(dp4240
g65
(dp4241
sg74
g4210
sg67
(lp4242
g60
(g81
g62
NtRp4243
(dp4244
g65
(dp4245
sg74
g4239
sg67
(lp4246
g60
(g61
g62
NtRp4247
(dp4248
g65
(dp4249
g73
I3
ssg74
g4243
sg67
(lp4250
S'/openopine/default/create_profile?tbl=place'
p4251
asbasbasbag60
(g76
g62
NtRp4252
(dp4253
g65
(dp4254
sg74
g4210
sg67
(lp4255
g60
(g81
g62
NtRp4256
(dp4257
g65
(dp4258
sg74
g4252
sg67
(lp4259
g60
(g61
g62
NtRp4260
(dp4261
g65
(dp4262
g73
I3
ssg74
g4256
sg67
(lp4263
g60
(g69
g62
NtRp4264
(dp4265
g65
(dp4266
g73
I2
ssg74
Nsg67
(lp4267
g60
(g76
g62
NtRp4268
(dp4269
g65
(dp4270
sg74
g4264
sg67
(lp4271
g60
(g81
g62
NtRp4272
(dp4273
g65
(dp4274
sg74
g4268
sg67
(lp4275
g60
(g61
g62
NtRp4276
(dp4277
g65
(dp4278
g73
I2
ssg74
g4272
sg67
(lp4279
g60
(g69
g62
NtRp4280
(dp4281
g65
(dp4282
g73
I1
ssg74
Nsg67
(lp4283
g60
(g76
g62
NtRp4284
(dp4285
g65
(dp4286
sg74
g4280
sg67
(lp4287
g60
(g81
g62
NtRp4288
(dp4289
g65
(dp4290
sg74
g4284
sg67
(lp4291
g60
(g61
g62
NtRp4292
(dp4293
g65
(dp4294
g73
I1
ssg74
g4288
sg67
(lp4295
g3945
(S's\x07\x00\x00\x00Company'
tRp4296
asbasbasbag60
(g76
g62
NtRp4297
(dp4298
g65
(dp4299
sg74
g4280
sg67
(lp4300
g60
(g81
g62
NtRp4301
(dp4302
g65
(dp4303
sg74
g4297
sg67
(lp4304
g60
(g61
g62
NtRp4305
(dp4306
g65
(dp4307
g73
I1
ssg74
g4301
sg67
(lp4308
I00
asbasbasbag60
(g76
g62
NtRp4309
(dp4310
g65
(dp4311
sg74
g4280
sg67
(lp4312
g60
(g81
g62
NtRp4313
(dp4314
g65
(dp4315
sg74
g4309
sg67
(lp4316
g60
(g61
g62
NtRp4317
(dp4318
g65
(dp4319
g73
I1
ssg74
g4313
sg67
(lp4320
S'/openopine/default/create_profile?tbl=region'
p4321
asbasbasbasbasbasbasbag60
(g76
g62
NtRp4322
(dp4323
g65
(dp4324
sg74
g4264
sg67
(lp4325
g60
(g81
g62
NtRp4326
(dp4327
g65
(dp4328
sg74
g4322
sg67
(lp4329
g60
(g61
g62
NtRp4330
(dp4331
g65
(dp4332
g73
I2
ssg74
g4326
sg67
(lp4333
g60
(g69
g62
NtRp4334
(dp4335
g65
(dp4336
g73
I1
ssg74
Nsg67
(lp4337
g60
(g76
g62
NtRp4338
(dp4339
g65
(dp4340
sg74
g4334
sg67
(lp4341
g60
(g81
g62
NtRp4342
(dp4343
g65
(dp4344
sg74
g4338
sg67
(lp4345
g60
(g61
g62
NtRp4346
(dp4347
g65
(dp4348
g73
I1
ssg74
g4342
sg67
(lp4349
g3945
(S's\x07\x00\x00\x00Product'
tRp4350
asbasbasbag60
(g76
g62
NtRp4351
(dp4352
g65
(dp4353
sg74
g4334
sg67
(lp4354
g60
(g81
g62
NtRp4355
(dp4356
g65
(dp4357
sg74
g4351
sg67
(lp4358
g60
(g61
g62
NtRp4359
(dp4360
g65
(dp4361
g73
I1
ssg74
g4355
sg67
(lp4362
I00
asbasbasbag60
(g76
g62
NtRp4363
(dp4364
g65
(dp4365
sg74
g4334
sg67
(lp4366
g60
(g81
g62
NtRp4367
(dp4368
g65
(dp4369
sg74
g4363
sg67
(lp4370
g60
(g61
g62
NtRp4371
(dp4372
g65
(dp4373
g73
I1
ssg74
g4367
sg67
(lp4374
S'/openopine/default/create_profile?tbl=place'
p4375
asbasbasbasbasbasbasbag60
(g76
g62
NtRp4376
(dp4377
g65
(dp4378
sg74
g4264
sg67
(lp4379
g60
(g81
g62
NtRp4380
(dp4381
g65
(dp4382
sg74
g4376
sg67
(lp4383
g60
(g61
g62
NtRp4384
(dp4385
g65
(dp4386
g73
I2
ssg74
g4380
sg67
(lp4387
g60
(g69
g62
NtRp4388
(dp4389
g65
(dp4390
g73
I1
ssg74
Nsg67
(lp4391
g60
(g76
g62
NtRp4392
(dp4393
g65
(dp4394
sg74
g4388
sg67
(lp4395
g60
(g81
g62
NtRp4396
(dp4397
g65
(dp4398
sg74
g4392
sg67
(lp4399
g60
(g61
g62
NtRp4400
(dp4401
g65
(dp4402
g73
I1
ssg74
g4396
sg67
(lp4403
g3945
(S's\x05\x00\x00\x00Event'
tRp4404
asbasbasbag60
(g76
g62
NtRp4405
(dp4406
g65
(dp4407
sg74
g4388
sg67
(lp4408
g60
(g81
g62
NtRp4409
(dp4410
g65
(dp4411
sg74
g4405
sg67
(lp4412
g60
(g61
g62
NtRp4413
(dp4414
g65
(dp4415
g73
I1
ssg74
g4409
sg67
(lp4416
I00
asbasbasbag60
(g76
g62
NtRp4417
(dp4418
g65
(dp4419
sg74
g4388
sg67
(lp4420
g60
(g81
g62
NtRp4421
(dp4422
g65
(dp4423
sg74
g4417
sg67
(lp4424
g60
(g61
g62
NtRp4425
(dp4426
g65
(dp4427
g73
I1
ssg74
g4421
sg67
(lp4428
S'/openopine/default/create_profile?tbl=event'
p4429
asbasbasbasbasbasbasbasbasbasbasbasbasbasbasbag60
(g76
g62
NtRp4430
(dp4431
g65
(dp4432
sg74
g3913
sg67
(lp4433
g60
(g81
g62
NtRp4434
(dp4435
g65
(dp4436
sg74
g4430
sg67
(lp4437
g60
(g61
g62
NtRp4438
(dp4439
g65
(dp4440
g73
I4
ssg74
g4434
sg67
(lp4441
g60
(g69
g62
NtRp4442
(dp4443
g65
(dp4444
g73
I3
ssg74
Nsg67
(lp4445
g60
(g76
g62
NtRp4446
(dp4447
g65
(dp4448
sg74
g4442
sg67
(lp4449
g60
(g81
g62
NtRp4450
(dp4451
g65
(dp4452
sg74
g4446
sg67
(lp4453
g60
(g61
g62
NtRp4454
(dp4455
g65
(dp4456
g73
I3
ssg74
g4450
sg67
(lp4457
g3945
(S's\x0b\x00\x00\x00Post Review'
tRp4458
asbasbasbag60
(g76
g62
NtRp4459
(dp4460
g65
(dp4461
sg74
g4442
sg67
(lp4462
g60
(g81
g62
NtRp4463
(dp4464
g65
(dp4465
sg74
g4459
sg67
(lp4466
g60
(g61
g62
NtRp4467
(dp4468
g65
(dp4469
g73
I3
ssg74
g4463
sg67
(lp4470
g103
asbasbasbag60
(g76
g62
NtRp4471
(dp4472
g65
(dp4473
sg74
g4442
sg67
(lp4474
g60
(g81
g62
NtRp4475
(dp4476
g65
(dp4477
sg74
g4471
sg67
(lp4478
g60
(g61
g62
NtRp4479
(dp4480
g65
(dp4481
g73
I3
ssg74
g4475
sg67
(lp4482
S'/openopine/default/create_review?tbl=place'
p4483
asbasbasbag60
(g76
g62
NtRp4484
(dp4485
g65
(dp4486
sg74
g4442
sg67
(lp4487
g60
(g81
g62
NtRp4488
(dp4489
g65
(dp4490
sg74
g4484
sg67
(lp4491
g60
(g61
g62
NtRp4492
(dp4493
g65
(dp4494
g73
I3
ssg74
g4488
sg67
(lp4495
g60
(g69
g62
NtRp4496
(dp4497
g65
(dp4498
g73
I2
ssg74
Nsg67
(lp4499
g60
(g76
g62
NtRp4500
(dp4501
g65
(dp4502
sg74
g4496
sg67
(lp4503
g60
(g81
g62
NtRp4504
(dp4505
g65
(dp4506
sg74
g4500
sg67
(lp4507
g60
(g61
g62
NtRp4508
(dp4509
g65
(dp4510
g73
I2
ssg74
g4504
sg67
(lp4511
g60
(g69
g62
NtRp4512
(dp4513
g65
(dp4514
g73
I1
ssg74
Nsg67
(lp4515
g60
(g76
g62
NtRp4516
(dp4517
g65
(dp4518
sg74
g4512
sg67
(lp4519
g60
(g81
g62
NtRp4520
(dp4521
g65
(dp4522
sg74
g4516
sg67
(lp4523
g60
(g61
g62
NtRp4524
(dp4525
g65
(dp4526
g73
I1
ssg74
g4520
sg67
(lp4527
g3945
(S's\x07\x00\x00\x00Company'
tRp4528
asbasbasbag60
(g76
g62
NtRp4529
(dp4530
g65
(dp4531
sg74
g4512
sg67
(lp4532
g60
(g81
g62
NtRp4533
(dp4534
g65
(dp4535
sg74
g4529
sg67
(lp4536
g60
(g61
g62
NtRp4537
(dp4538
g65
(dp4539
g73
I1
ssg74
g4533
sg67
(lp4540
I00
asbasbasbag60
(g76
g62
NtRp4541
(dp4542
g65
(dp4543
sg74
g4512
sg67
(lp4544
g60
(g81
g62
NtRp4545
(dp4546
g65
(dp4547
sg74
g4541
sg67
(lp4548
g60
(g61
g62
NtRp4549
(dp4550
g65
(dp4551
g73
I1
ssg74
g4545
sg67
(lp4552
S'/openopine/default/create_review?tbl=region'
p4553
asbasbasbasbasbasbasbag60
(g76
g62
NtRp4554
(dp4555
g65
(dp4556
sg74
g4496
sg67
(lp4557
g60
(g81
g62
NtRp4558
(dp4559
g65
(dp4560
sg74
g4554
sg67
(lp4561
g60
(g61
g62
NtRp4562
(dp4563
g65
(dp4564
g73
I2
ssg74
g4558
sg67
(lp4565
g60
(g69
g62
NtRp4566
(dp4567
g65
(dp4568
g73
I1
ssg74
Nsg67
(lp4569
g60
(g76
g62
NtRp4570
(dp4571
g65
(dp4572
sg74
g4566
sg67
(lp4573
g60
(g81
g62
NtRp4574
(dp4575
g65
(dp4576
sg74
g4570
sg67
(lp4577
g60
(g61
g62
NtRp4578
(dp4579
g65
(dp4580
g73
I1
ssg74
g4574
sg67
(lp4581
g3945
(S's\x07\x00\x00\x00Product'
tRp4582
asbasbasbag60
(g76
g62
NtRp4583
(dp4584
g65
(dp4585
sg74
g4566
sg67
(lp4586
g60
(g81
g62
NtRp4587
(dp4588
g65
(dp4589
sg74
g4583
sg67
(lp4590
g60
(g61
g62
NtRp4591
(dp4592
g65
(dp4593
g73
I1
ssg74
g4587
sg67
(lp4594
I00
asbasbasbag60
(g76
g62
NtRp4595
(dp4596
g65
(dp4597
sg74
g4566
sg67
(lp4598
g60
(g81
g62
NtRp4599
(dp4600
g65
(dp4601
sg74
g4595
sg67
(lp4602
g60
(g61
g62
NtRp4603
(dp4604
g65
(dp4605
g73
I1
ssg74
g4599
sg67
(lp4606
S'/openopine/default/create_review?tbl=place'
p4607
asbasbasbasbasbasbasbag60
(g76
g62
NtRp4608
(dp4609
g65
(dp4610
sg74
g4496
sg67
(lp4611
g60
(g81
g62
NtRp4612
(dp4613
g65
(dp4614
sg74
g4608
sg67
(lp4615
g60
(g61
g62
NtRp4616
(dp4617
g65
(dp4618
g73
I2
ssg74
g4612
sg67
(lp4619
g60
(g69
g62
NtRp4620
(dp4621
g65
(dp4622
g73
I1
ssg74
Nsg67
(lp4623
g60
(g76
g62
NtRp4624
(dp4625
g65
(dp4626
sg74
g4620
sg67
(lp4627
g60
(g81
g62
NtRp4628
(dp4629
g65
(dp4630
sg74
g4624
sg67
(lp4631
g60
(g61
g62
NtRp4632
(dp4633
g65
(dp4634
g73
I1
ssg74
g4628
sg67
(lp4635
g3945
(S's\x05\x00\x00\x00Event'
tRp4636
asbasbasbag60
(g76
g62
NtRp4637
(dp4638
g65
(dp4639
sg74
g4620
sg67
(lp4640
g60
(g81
g62
NtRp4641
(dp4642
g65
(dp4643
sg74
g4637
sg67
(lp4644
g60
(g61
g62
NtRp4645
(dp4646
g65
(dp4647
g73
I1
ssg74
g4641
sg67
(lp4648
I00
asbasbasbag60
(g76
g62
NtRp4649
(dp4650
g65
(dp4651
sg74
g4620
sg67
(lp4652
g60
(g81
g62
NtRp4653
(dp4654
g65
(dp4655
sg74
g4649
sg67
(lp4656
g60
(g61
g62
NtRp4657
(dp4658
g65
(dp4659
g73
I1
ssg74
g4653
sg67
(lp4660
S'/openopine/default/create_review?tbl=event'
p4661
asbasbasbasbasbasbasbasbasbasbasbasbasbasbasbag60
(g76
g62
NtRp4662
(dp4663
g65
(dp4664
sg74
g3913
sg67
(lp4665
g60
(g81
g62
NtRp4666
(dp4667
g65
(dp4668
sg74
g4662
sg67
(lp4669
g60
(g61
g62
NtRp4670
(dp4671
g65
(dp4672
g73
I4
ssg74
g4666
sg67
(lp4673
g60
(g69
g62
NtRp4674
(dp4675
g65
(dp4676
g73
I3
ssg74
Nsg67
(lp4677
g60
(g76
g62
NtRp4678
(dp4679
g65
(dp4680
sg74
g4674
sg67
(lp4681
g60
(g81
g62
NtRp4682
(dp4683
g65
(dp4684
sg74
g4678
sg67
(lp4685
g60
(g61
g62
NtRp4686
(dp4687
g65
(dp4688
g73
I3
ssg74
g4682
sg67
(lp4689
g3945
(S's\x06\x00\x00\x00Manage'
tRp4690
asbasbasbag60
(g76
g62
NtRp4691
(dp4692
g65
(dp4693
sg74
g4674
sg67
(lp4694
g60
(g81
g62
NtRp4695
(dp4696
g65
(dp4697
sg74
g4691
sg67
(lp4698
g60
(g61
g62
NtRp4699
(dp4700
g65
(dp4701
g73
I3
ssg74
g4695
sg67
(lp4702
g103
asbasbasbag60
(g76
g62
NtRp4703
(dp4704
g65
(dp4705
sg74
g4674
sg67
(lp4706
g60
(g81
g62
NtRp4707
(dp4708
g65
(dp4709
sg74
g4703
sg67
(lp4710
g60
(g61
g62
NtRp4711
(dp4712
g65
(dp4713
g73
I3
ssg74
g4707
sg67
(lp4714
S'/openopine/default/create_contributor'
p4715
asbasbasbag60
(g76
g62
NtRp4716
(dp4717
g65
(dp4718
sg74
g4674
sg67
(lp4719
g60
(g81
g62
NtRp4720
(dp4721
g65
(dp4722
sg74
g4716
sg67
(lp4723
g60
(g61
g62
NtRp4724
(dp4725
g65
(dp4726
g73
I3
ssg74
g4720
sg67
(lp4727
g60
(g69
g62
NtRp4728
(dp4729
g65
(dp4730
g73
I2
ssg74
Nsg67
(lp4731
sbasbasbasbasbasbasbasbasbasbasbasbag60
(g76
g62
NtRp4732
(dp4733
g65
(dp4734
sg74
g3460
sg67
(lp4735
g60
(g81
g62
NtRp4736
(dp4737
g65
(dp4738
g85
g86
ssg74
g4732
sg67
(lp4739
S'meta'
p4740
asbag60
(g81
g62
NtRp4741
(dp4742
g65
(dp4743
g92
g93
ssg74
g4732
sg67
(lp4744
S':'
asbag60
(g81
g62
NtRp4745
(dp4746
g65
(dp4747
sg74
g4732
sg67
(lp4748
g60
(g61
g62
NtRp4749
(dp4750
g65
(dp4751
g73
I5
ssg74
g4745
sg67
(lp4752
g60
(g69
g62
NtRp4753
(dp4754
g65
(dp4755
g73
I4
ssg74
Nsg67
(lp4756
g60
(g76
g62
NtRp4757
(dp4758
g65
(dp4759
sg74
g4753
sg67
(lp4760
g60
(g81
g62
NtRp4761
(dp4762
g65
(dp4763
g85
g86
ssg74
g4757
sg67
(lp4764
S'author'
p4765
asbag60
(g81
g62
NtRp4766
(dp4767
g65
(dp4768
g92
g93
ssg74
g4757
sg67
(lp4769
S':'
asbag60
(g81
g62
NtRp4770
(dp4771
g65
(dp4772
sg74
g4757
sg67
(lp4773
g60
(g61
g62
NtRp4774
(dp4775
g65
(dp4776
g73
I4
ssg74
g4770
sg67
(lp4777
S'Casey Schroeder <cs@equi-mind.com>'
p4778
asbasbasbag60
(g76
g62
NtRp4779
(dp4780
g65
(dp4781
sg74
g4753
sg67
(lp4782
g60
(g81
g62
NtRp4783
(dp4784
g65
(dp4785
g85
g86
ssg74
g4779
sg67
(lp4786
S'copyright'
p4787
asbag60
(g81
g62
NtRp4788
(dp4789
g65
(dp4790
g92
g93
ssg74
g4779
sg67
(lp4791
S':'
asbag60
(g81
g62
NtRp4792
(dp4793
g65
(dp4794
sg74
g4779
sg67
(lp4795
g60
(g61
g62
NtRp4796
(dp4797
g65
(dp4798
g73
I4
ssg74
g4792
sg67
(lp4799
S'Copyright 2011'
p4800
asbasbasbag60
(g76
g62
NtRp4801
(dp4802
g65
(dp4803
sg74
g4753
sg67
(lp4804
g60
(g81
g62
NtRp4805
(dp4806
g65
(dp4807
g85
g86
ssg74
g4801
sg67
(lp4808
S'description'
p4809
asbag60
(g81
g62
NtRp4810
(dp4811
g65
(dp4812
g92
g93
ssg74
g4801
sg67
(lp4813
S':'
asbag60
(g81
g62
NtRp4814
(dp4815
g65
(dp4816
sg74
g4801
sg67
(lp4817
g60
(g61
g62
NtRp4818
(dp4819
g65
(dp4820
g73
I4
ssg74
g4814
sg67
(lp4821
S'application for reviews'
p4822
asbasbasbag60
(g76
g62
NtRp4823
(dp4824
g65
(dp4825
sg74
g4753
sg67
(lp4826
g60
(g81
g62
NtRp4827
(dp4828
g65
(dp4829
g85
g86
ssg74
g4823
sg67
(lp4830
S'generator'
p4831
asbag60
(g81
g62
NtRp4832
(dp4833
g65
(dp4834
g92
g93
ssg74
g4823
sg67
(lp4835
S':'
asbag60
(g81
g62
NtRp4836
(dp4837
g65
(dp4838
sg74
g4823
sg67
(lp4839
g60
(g61
g62
NtRp4840
(dp4841
g65
(dp4842
g73
I4
ssg74
g4836
sg67
(lp4843
S'Web2py Web Framework'
p4844
asbasbasbag60
(g76
g62
NtRp4845
(dp4846
g65
(dp4847
sg74
g4753
sg67
(lp4848
g60
(g81
g62
NtRp4849
(dp4850
g65
(dp4851
g85
g86
ssg74
g4845
sg67
(lp4852
S'keywords'
p4853
asbag60
(g81
g62
NtRp4854
(dp4855
g65
(dp4856
g92
g93
ssg74
g4845
sg67
(lp4857
S':'
asbag60
(g81
g62
NtRp4858
(dp4859
g65
(dp4860
sg74
g4845
sg67
(lp4861
g60
(g61
g62
NtRp4862
(dp4863
g65
(dp4864
g73
I4
ssg74
g4858
sg67
(lp4865
S'web development, finance, analytics'
p4866
asbasbasbasbasbasbasbag60
(g76
g62
NtRp4867
(dp4868
g65
(dp4869
sg74
g3460
sg67
(lp4870
g60
(g81
g62
NtRp4871
(dp4872
g65
(dp4873
g85
g86
ssg74
g4867
sg67
(lp4874
S'postprocessing'
p4875
asbag60
(g81
g62
NtRp4876
(dp4877
g65
(dp4878
g92
g93
ssg74
g4867
sg67
(lp4879
S':'
asbag60
(g81
g62
NtRp4880
(dp4881
g65
(dp4882
sg74
g4867
sg67
(lp4883
g60
(g61
g62
NtRp4884
(dp4885
g65
(dp4886
g73
I5
ssg74
g4880
sg67
(lp4887
g60
(g69
g62
NtRp4888
(dp4889
g65
(dp4890
g73
I4
ssg74
Nsg67
(lp4891
sbasbasbasbag60
(g76
g62
NtRp4892
(dp4893
g65
(dp4894
sg74
g3460
sg67
(lp4895
g60
(g81
g62
NtRp4896
(dp4897
g65
(dp4898
g85
g86
ssg74
g4892
sg67
(lp4899
S'session_file'
p4900
asbag60
(g81
g62
NtRp4901
(dp4902
g65
(dp4903
g92
g93
ssg74
g4892
sg67
(lp4904
S':'
asbag60
(g81
g62
NtRp4905
(dp4906
g65
(dp4907
sg74
g4892
sg67
(lp4908
g60
(g61
g62
NtRp4909
(dp4910
g65
(dp4911
g73
I5
ssg74
g4905
sg67
(lp4912
S"<open file 'C:\\Users\\Do It\\Desktop\\web2py_opine\\web2py\\applications\\openopine\\sessions\\127.0.0.1-c23be48a-ee51-4c8b-a5be-0c35c319ee44', mode 'rb+' at 0x0331B9F8>"
p4913
asbasbasbag60
(g76
g62
NtRp4914
(dp4915
g65
(dp4916
sg74
g3460
sg67
(lp4917
g60
(g81
g62
NtRp4918
(dp4919
g65
(dp4920
g85
g86
ssg74
g4914
sg67
(lp4921
S'session_filename'
p4922
asbag60
(g81
g62
NtRp4923
(dp4924
g65
(dp4925
g92
g93
ssg74
g4914
sg67
(lp4926
S':'
asbag60
(g81
g62
NtRp4927
(dp4928
g65
(dp4929
sg74
g4914
sg67
(lp4930
g60
(g61
g62
NtRp4931
(dp4932
g65
(dp4933
g73
I5
ssg74
g4927
sg67
(lp4934
S'C:\\Users\\Do It\\Desktop\\web2py_opine\\web2py\\applications\\openopine\\sessions\\127.0.0.1-c23be48a-ee51-4c8b-a5be-0c35c319ee44'
p4935
asbasbasbag60
(g76
g62
NtRp4936
(dp4937
g65
(dp4938
sg74
g3460
sg67
(lp4939
g60
(g81
g62
NtRp4940
(dp4941
g65
(dp4942
g85
g86
ssg74
g4936
sg67
(lp4943
S'session_id'
p4944
asbag60
(g81
g62
NtRp4945
(dp4946
g65
(dp4947
g92
g93
ssg74
g4936
sg67
(lp4948
S':'
asbag60
(g81
g62
NtRp4949
(dp4950
g65
(dp4951
sg74
g4936
sg67
(lp4952
g60
(g61
g62
NtRp4953
(dp4954
g65
(dp4955
g73
I5
ssg74
g4949
sg67
(lp4956
S'127.0.0.1-c23be48a-ee51-4c8b-a5be-0c35c319ee44'
p4957
asbasbasbag60
(g76
g62
NtRp4958
(dp4959
g65
(dp4960
sg74
g3460
sg67
(lp4961
g60
(g81
g62
NtRp4962
(dp4963
g65
(dp4964
g85
g86
ssg74
g4958
sg67
(lp4965
S'session_id_name'
p4966
asbag60
(g81
g62
NtRp4967
(dp4968
g65
(dp4969
g92
g93
ssg74
g4958
sg67
(lp4970
S':'
asbag60
(g81
g62
NtRp4971
(dp4972
g65
(dp4973
sg74
g4958
sg67
(lp4974
g60
(g61
g62
NtRp4975
(dp4976
g65
(dp4977
g73
I5
ssg74
g4971
sg67
(lp4978
g3517
asbasbasbag60
(g76
g62
NtRp4979
(dp4980
g65
(dp4981
sg74
g3460
sg67
(lp4982
g60
(g81
g62
NtRp4983
(dp4984
g65
(dp4985
g85
g86
ssg74
g4979
sg67
(lp4986
S'session_locked'
p4987
asbag60
(g81
g62
NtRp4988
(dp4989
g65
(dp4990
g92
g93
ssg74
g4979
sg67
(lp4991
S':'
asbag60
(g81
g62
NtRp4992
(dp4993
g65
(dp4994
sg74
g4979
sg67
(lp4995
g60
(g61
g62
NtRp4996
(dp4997
g65
(dp4998
g73
I5
ssg74
g4992
sg67
(lp4999
g1638
asbasbasbag60
(g76
g62
NtRp5000
(dp5001
g65
(dp5002
sg74
g3460
sg67
(lp5003
g60
(g81
g62
NtRp5004
(dp5005
g65
(dp5006
g85
g86
ssg74
g5000
sg67
(lp5007
S'session_new'
p5008
asbag60
(g81
g62
NtRp5009
(dp5010
g65
(dp5011
g92
g93
ssg74
g5000
sg67
(lp5012
S':'
asbag60
(g81
g62
NtRp5013
(dp5014
g65
(dp5015
sg74
g5000
sg67
(lp5016
g60
(g61
g62
NtRp5017
(dp5018
g65
(dp5019
g73
I5
ssg74
g5013
sg67
(lp5020
g103
asbasbasbag60
(g76
g62
NtRp5021
(dp5022
g65
(dp5023
sg74
g3460
sg67
(lp5024
g60
(g81
g62
NtRp5025
(dp5026
g65
(dp5027
g85
g86
ssg74
g5021
sg67
(lp5028
S'status'
p5029
asbag60
(g81
g62
NtRp5030
(dp5031
g65
(dp5032
g92
g93
ssg74
g5021
sg67
(lp5033
S':'
asbag60
(g81
g62
NtRp5034
(dp5035
g65
(dp5036
sg74
g5021
sg67
(lp5037
g60
(g61
g62
NtRp5038
(dp5039
g65
(dp5040
g73
I5
ssg74
g5034
sg67
(lp5041
S'200'
p5042
asbasbasbag60
(g76
g62
NtRp5043
(dp5044
g65
(dp5045
sg74
g3460
sg67
(lp5046
g60
(g81
g62
NtRp5047
(dp5048
g65
(dp5049
g85
g86
ssg74
g5043
sg67
(lp5050
S'subtitle'
p5051
asbag60
(g81
g62
NtRp5052
(dp5053
g65
(dp5054
g92
g93
ssg74
g5043
sg67
(lp5055
S':'
asbag60
(g81
g62
NtRp5056
(dp5057
g65
(dp5058
sg74
g5043
sg67
(lp5059
g60
(g61
g62
NtRp5060
(dp5061
g65
(dp5062
g73
I5
ssg74
g5056
sg67
(lp5063
g3945
(S's\t\x00\x00\x00eat well!'
tRp5064
asbasbasbag60
(g76
g62
NtRp5065
(dp5066
g65
(dp5067
sg74
g3460
sg67
(lp5068
g60
(g81
g62
NtRp5069
(dp5070
g65
(dp5071
g85
g86
ssg74
g5065
sg67
(lp5072
S'title'
p5073
asbag60
(g81
g62
NtRp5074
(dp5075
g65
(dp5076
g92
g93
ssg74
g5065
sg67
(lp5077
S':'
asbag60
(g81
g62
NtRp5078
(dp5079
g65
(dp5080
sg74
g5065
sg67
(lp5081
g60
(g61
g62
NtRp5082
(dp5083
g65
(dp5084
g73
I5
ssg74
g5078
sg67
(lp5085
g125
asbasbasbag60
(g76
g62
NtRp5086
(dp5087
g65
(dp5088
sg74
g3460
sg67
(lp5089
g60
(g81
g62
NtRp5090
(dp5091
g65
(dp5092
g85
g86
ssg74
g5086
sg67
(lp5093
g2304
asbag60
(g81
g62
NtRp5094
(dp5095
g65
(dp5096
g92
g93
ssg74
g5086
sg67
(lp5097
S':'
asbag60
(g81
g62
NtRp5098
(dp5099
g65
(dp5100
sg74
g5086
sg67
(lp5101
g60
(g61
g62
NtRp5102
(dp5103
g65
(dp5104
g73
I5
ssg74
g5098
sg67
(lp5105
g2317
asbasbasbag60
(g76
g62
NtRp5106
(dp5107
g65
(dp5108
sg74
g3460
sg67
(lp5109
g60
(g81
g62
NtRp5110
(dp5111
g65
(dp5112
g85
g86
ssg74
g5106
sg67
(lp5113
S'view'
p5114
asbag60
(g81
g62
NtRp5115
(dp5116
g65
(dp5117
g92
g93
ssg74
g5106
sg67
(lp5118
S':'
asbag60
(g81
g62
NtRp5119
(dp5120
g65
(dp5121
sg74
g5106
sg67
(lp5122
g60
(g61
g62
NtRp5123
(dp5124
g65
(dp5125
g73
I5
ssg74
g5119
sg67
(lp5126
S'default/create_review.html'
p5127
asbasbasbasbasbsS'locals'
p5128
(dp5129
g65
g20
sS'attr'
p5130
S"{'_class': 'integer', '_id': 'place_review_stars', '_name': 'stars', 'requires': <gluon.validators.IS_LENGTH object at 0x073282F0>}"
p5131
sS'value'
p5132
S'None'
p5133
sS'field'
p5134
S'<gluon.dal.Field object at 0x07328650>'
p5135
sssS'traceback'
p5136
S'Traceback (most recent call last):\n  File "C:\\Users\\Do It\\Desktop\\web2py_opine\\web2py\\gluon\\restricted.py", line 194, in restricted\n    exec ccode in environment\n  File "C:\\Users\\Do It\\Desktop\\web2py_opine\\web2py\\applications\\openopine\\controllers/default.py", line 327, in <module>\n  File "C:\\Users\\Do It\\Desktop\\web2py_opine\\web2py\\gluon\\globals.py", line 149, in <lambda>\n    self._caller = lambda f: f()\n  File "C:\\Users\\Do It\\Desktop\\web2py_opine\\web2py\\gluon\\tools.py", line 2456, in f\n    return action(*a, **b)\n  File "C:\\Users\\Do It\\Desktop\\web2py_opine\\web2py\\applications\\openopine\\controllers/default.py", line 281, in create_review\n    headers=dict([(session.tablename+\'_review.ref_id\',viewname),(session.tablename+\'_review.blurb\', T(\'Short Description\')),(session.tablename+\'_review.author\', T("Reviewer")),(session.tablename+\'_review.title\', T("Title")),(session.tablename+\'_review.subject\', T("Subject"))]), columns=dict([(session.tablename+\'_review.ref_id\',15),(session.tablename+\'_review.blurb\', 15),(session.tablename+\'_review.author\', 15),(session.tablename+\'_review.title\', 15),(session.tablename+\'_review.subject\', 15)]))\n  File "C:\\Users\\Do It\\Desktop\\web2py_opine\\web2py\\gluon\\sqlhtml.py", line 1473, in grid\n    _class=\'web2py_form\')\n  File "C:\\Users\\Do It\\Desktop\\web2py_opine\\web2py\\gluon\\sqlhtml.py", line 853, in __init__\n    inp = field.widget(field, default)\n  File "C:\\Users\\Do It\\Desktop\\web2py_opine\\web2py\\applications\\openopine\\models\\db.py", line 138, in widget\n    raise SyntaxError, \'widget cannot determine options of %s\' % field\nSyntaxError: widget cannot determine options of place_review.stars\n'
p5137
s.